(dp0
S'PF01187'
p1
(dp2
S'id'
p3
S'MIF'
p4
sS'locations'
p5
(lp6
(dp7
S'end'
p8
S'114'
p9
sS'bitscore'
p10
S'174.2'
p11
sS'hmm_start'
p12
S'1'
p13
sS'ali_end'
p14
S'114'
p15
sS'evidence'
p16
S'hmmer v3.0'
p17
sS'ali_start'
p18
g13
sS'start'
p19
g13
sS'significant'
p20
g13
sS'evalue'
p21
S'7.7e-52'
p22
sS'hmm_end'
p23
S'114'
p24
sasS'type'
p25
S'Pfam-A'
p26
sS'class'
p27
S'Domain'
p28
sS'accession'
p29
S'PF01187.13'
p30
ss.