(dp0
S'PF02171'
p1
(dp2
S'locations'
p3
(lp4
(dp5
S'end'
p6
S'406'
p7
sS'bitscore'
p8
S'228.70'
p9
sS'hmm_start'
p10
S'2'
p11
sS'ali_end'
p12
S'405'
p13
sS'ali_start'
p14
S'111'
p15
sS'start'
p16
S'110'
p17
sS'evalue'
p18
S'1.1e-64'
p19
sS'hmm_end'
p20
S'301'
p21
sasS'type'
p22
S'Pfam-A'
p23
sS'accession'
p24
g1
sS'id'
p25
S'Piwi'
p26
ss.