ccopy_reg
_reconstructor
p0
(cprody.proteins.blastpdb
PDBBlastRecord
p1
c__builtin__
object
p2
Ntp3
Rp4
(dp5
S'_param'
p6
(dp7
S'filter'
p8
S'F'
p9
sS'gap-extend'
p10
S'1'
p11
sS'gap-open'
p12
S'11'
p13
sS'matrix'
p14
S'BLOSUM62'
p15
sS'expect'
p16
S'1e-09'
p17
ssS'_sequence'
p18
S'ASFPVEILPFLYLGCAKDSTNLDVLEEFGIKYILNVTPNLPNLFENAGEFKYKQIPISDHWSQNLSQFFPEAISFIDEARGKNCGVLVHSLAGISRSVTVTVAYLMQKLNLSMNDAYDIVKMKKSNISPNFNFMGQLLDFERTL'
p19
sS'_hits'
p20
(lp21
(F100.0
F100.0
(dp22
S'percent_identity'
p23
F100.0
sS'query-frame'
p24
I0
sS'hit-from'
p25
I1
sS'num'
p26
g11
sS'gaps'
p27
I0
sS'query-from'
p28
I1
sS'query-to'
p29
I144
sS'identity'
p30
I144
sS'midline'
p31
S'ASFPVEILPFLYLGCAKDSTNLDVLEEFGIKYILNVTPNLPNLFENAGEFKYKQIPISDHWSQNLSQFFPEAISFIDEARGKNCGVLVHSLAGISRSVTVTVAYLMQKLNLSMNDAYDIVKMKKSNISPNFNFMGQLLDFERTL'
p32
sS'align-len'
p33
I144
sS'title'
p34
S'ChainA, Crystal Structure Of Pyst1 (Mkp3)'
p35
sS'percent_overlap'
p36
F100.0
sS'positive'
p37
I144
sS'evalue'
p38
F3.92049e-104
sS'chain_id'
p39
S'A'
p40
sS'hit-frame'
p41
I0
sS'pdb_id'
p42
S'1mkp'
p43
sS'bit-score'
p44
F298.13
sS'score'
p45
F762.0
sS'query-len'
p46
I144
sS'percent_coverage'
p47
F100.0
sS'hseq'
p48
S'ASFPVEILPFLYLGCAKDSTNLDVLEEFGIKYILNVTPNLPNLFENAGEFKYKQIPISDHWSQNLSQFFPEAISFIDEARGKNCGVLVHSLAGISRSVTVTVAYLMQKLNLSMNDAYDIVKMKKSNISPNFNFMGQLLDFERTL'
p49
sS'qseq'
p50
S'ASFPVEILPFLYLGCAKDSTNLDVLEEFGIKYILNVTPNLPNLFENAGEFKYKQIPISDHWSQNLSQFFPEAISFIDEARGKNCGVLVHSLAGISRSVTVTVAYLMQKLNLSMNDAYDIVKMKKSNISPNFNFMGQLLDFERTL'
p51
sS'hit-to'
p52
I144
stp53
a(F81.25
F100.0
(dp54
g23
F81.25
sS'query-frame'
p55
I0
sS'hit-from'
p56
I3
sS'num'
p57
g11
sS'gaps'
p58
I0
sS'query-from'
p59
I1
sS'query-to'
p60
I144
sS'identity'
p61
I117
sS'midline'
p62
S'ASFPV+ILP LYLG A+DS NL+ L + GI+YILNVTPNLPN FE  G+F YKQIPISDHWSQNLS+FFPEAI FIDEA  +NCGVLVHSLAG+SRSVTVTVAYLMQKL+LS+NDAYD+VK KKSNISPNFNFMGQLLDFER+L'
p63
sS'align-len'
p64
I144
sg34
S'ChainA, Crystal Structure Of The Human Phosphatase (Dusp9)'
p65
sg36
F100.0
sS'positive'
p66
I130
sS'evalue'
p67
F2.58674e-84
sg39
g40
sS'hit-frame'
p68
I0
sg42
S'2hxp'
p69
sS'bit-score'
p70
F248.054
sS'score'
p71
F632.0
sg46
I144
sg47
F100.0
sS'hseq'
p72
S'ASFPVQILPNLYLGSARDSANLESLAKLGIRYILNVTPNLPNFFEKNGDFHYKQIPISDHWSQNLSRFFPEAIEFIDEALSQNCGVLVHSLAGVSRSVTVTVAYLMQKLHLSLNDAYDLVKRKKSNISPNFNFMGQLLDFERSL'
p73
sS'qseq'
p74
S'ASFPVEILPFLYLGCAKDSTNLDVLEEFGIKYILNVTPNLPNLFENAGEFKYKQIPISDHWSQNLSQFFPEAISFIDEARGKNCGVLVHSLAGISRSVTVTVAYLMQKLNLSMNDAYDIVKMKKSNISPNFNFMGQLLDFERTL'
p75
sS'hit-to'
p76
I146
stp77
a(F80.41958041958041
F99.30555555555556
(dp78
g23
F80.41958041958041
sS'query-frame'
p79
I0
sS'hit-from'
p80
I1
sS'num'
p81
g11
sS'gaps'
p82
I0
sS'query-from'
p83
I2
sS'query-to'
p84
I144
sS'identity'
p85
I115
sS'midline'
p86
S'SFPV+ILP LYLG A+DS NL+ L + GI+YILNVTPNLPN FE  G+F YKQIPISDHWSQNLS+FFPEAI FIDEA  +NCGVLVH LAG+SRSVTVTVAYLMQKL+LS+NDAYD+VK KKSNISPNFNFMGQLLDFER+L'
p87
sS'align-len'
p88
I143
sg34
S'ChainA, Crystal Structure Of Mkp-4'
p89
sg36
F99.30555555555556
sS'positive'
p90
I128
sS'evalue'
p91
F9.988e-83
sg39
g40
sS'hit-frame'
p92
I0
sg42
S'3lj8'
p93
sS'bit-score'
p94
F243.817
sS'score'
p95
F621.0
sg46
I144
sg47
F99.30555555555556
sS'hseq'
p96
S'SFPVQILPNLYLGSARDSANLESLAKLGIRYILNVTPNLPNFFEKNGDFHYKQIPISDHWSQNLSRFFPEAIEFIDEALSQNCGVLVHCLAGVSRSVTVTVAYLMQKLHLSLNDAYDLVKRKKSNISPNFNFMGQLLDFERSL'
p97
sS'qseq'
p98
S'SFPVEILPFLYLGCAKDSTNLDVLEEFGIKYILNVTPNLPNLFENAGEFKYKQIPISDHWSQNLSQFFPEAISFIDEARGKNCGVLVHSLAGISRSVTVTVAYLMQKLNLSMNDAYDIVKMKKSNISPNFNFMGQLLDFERTL'
p99
sS'hit-to'
p100
I143
stp101
a(F50.72463768115942
F94.44444444444444
(dp102
g23
F50.72463768115942
sS'query-frame'
p103
I0
sS'hit-from'
p104
I4
sS'num'
p105
g11
sS'gaps'
p106
I2
sS'query-from'
p107
I4
sS'query-to'
p108
I141
sS'identity'
p109
I70
sS'midline'
p110
S'PVEILPFLYLG A  +   D+L+  GI  +LNV+ + PN FE  G ++YK IP+ D+   ++S +F EAI +ID  +     VLVHS AGISRS T+ +AYLM K  + + +A++ VK ++S ISPNF+FMGQLL FE'
p111
sS'align-len'
p112
I138
sg34
S'ChainA, Crystal Structure Of Human Mkp-2'
p113
sg36
F94.44444444444444
sS'positive'
p114
I95
sS'evalue'
p115
F2.42231e-43
sg39
g40
sS'hit-frame'
p116
I0
sg42
S'3ezz'
p117
sS'bit-score'
p118
F143.28
sS'score'
p119
F360.0
sg46
I144
sg47
F94.44444444444444
sS'hseq'
p120
S'PVEILPFLYLGSAYHAARRDMLDALGITALLNVSSDCPNHFE--GHYQYKCIPVEDNHKADISSWFMEAIEYIDAVKDCRGRVLVHSQAGISRSATICLAYLMMKKRVRLEEAFEFVKQRRSIISPNFSFMGQLLQFE'
p121
sS'qseq'
p122
S'PVEILPFLYLGCAKDSTNLDVLEEFGIKYILNVTPNLPNLFENAGEFKYKQIPISDHWSQNLSQFFPEAISFIDEARGKNCGVLVHSLAGISRSVTVTVAYLMQKLNLSMNDAYDIVKMKKSNISPNFNFMGQLLDFE'
p123
sS'hit-to'
p124
I139
stp125
a(F50.72463768115942
F94.44444444444444
(dp126
g23
F50.72463768115942
sg103
I0
sg104
I4
sg105
g11
sg106
I2
sg107
I4
sg108
I141
sg109
I70
sg110
g111
sg112
I138
sg34
S'Chain B, Crystal Structure Of Human Mkp-2'
p127
sg36
F94.44444444444444
sg114
I95
sg115
F2.42231e-43
sg39
S'B'
p128
sg116
I0
sg42
S'3ezz'
p129
sg118
F143.28
sg119
F360.0
sg46
I144
sg47
F94.44444444444444
sg120
g121
sg122
g123
sg124
I139
stp130
a(F50.72463768115942
F94.44444444444444
(dp131
g23
F50.72463768115942
sg103
I0
sg104
I4
sg105
g11
sg106
I2
sg107
I4
sg108
I141
sg109
I70
sg110
g111
sg112
I138
sg34
S'Chain C, Crystal Structure Of Human Mkp-2'
p132
sg36
F94.44444444444444
sg114
I95
sg115
F2.42231e-43
sg39
S'C'
p133
sg116
I0
sg42
S'3ezz'
p134
sg118
F143.28
sg119
F360.0
sg46
I144
sg47
F94.44444444444444
sg120
g121
sg122
g123
sg124
I139
stp135
a(F50.72463768115942
F94.44444444444444
(dp136
g23
F50.72463768115942
sg103
I0
sg104
I4
sg105
g11
sg106
I2
sg107
I4
sg108
I141
sg109
I70
sg110
g111
sg112
I138
sg34
S'Chain D, Crystal Structure Of Human Mkp-2'
p137
sg36
F94.44444444444444
sg114
I95
sg115
F2.42231e-43
sg39
S'D'
p138
sg116
I0
sg42
S'3ezz'
p139
sg118
F143.28
sg119
F360.0
sg46
I144
sg47
F94.44444444444444
sg120
g121
sg122
g123
sg124
I139
stp140
a(F50.72463768115942
F94.44444444444444
(dp141
g23
F50.72463768115942
sg103
I0
sg104
I4
sg105
g11
sg106
I2
sg107
I4
sg108
I141
sg109
I70
sg110
g111
sg112
I138
sg34
S'Chain E, Crystal Structure Of Human Mkp-2'
p142
sg36
F94.44444444444444
sg114
I95
sg115
F2.42231e-43
sg39
S'E'
p143
sg116
I0
sg42
S'3ezz'
p144
sg118
F143.28
sg119
F360.0
sg46
I144
sg47
F94.44444444444444
sg120
g121
sg122
g123
sg124
I139
stp145
a(F50.72463768115942
F94.44444444444444
(dp146
g23
F50.72463768115942
sg103
I0
sg104
I4
sg105
g11
sg106
I2
sg107
I4
sg108
I141
sg109
I70
sg110
g111
sg112
I138
sg34
S'Chain F, Crystal Structure Of Human Mkp-2'
p147
sg36
F94.44444444444444
sg114
I95
sg115
F2.42231e-43
sg39
g9
sg116
I0
sg42
S'3ezz'
p148
sg118
F143.28
sg119
F360.0
sg46
I144
sg47
F94.44444444444444
sg120
g121
sg122
g123
sg124
I139
stp149
a(F50.72463768115942
F94.44444444444444
(dp150
g23
F50.72463768115942
sS'query-frame'
p151
I0
sS'hit-from'
p152
I4
sS'num'
p153
g11
sS'gaps'
p154
I2
sS'query-from'
p155
I4
sS'query-to'
p156
I141
sS'identity'
p157
I70
sS'midline'
p158
S'PVEILP+L+LG    S++L  L+  GI  +LNV+ + PN FE  G F+YK IP+ D+    +S +F EAI FID  +     VLVHS AGISRS T+ +AYLMQ   + +++A+D VK ++  ISPNF+FMGQLL FE'
p159
sS'align-len'
p160
I138
sg34
S'ChainA, Solution Structure Of The Catalytic Domain Of Mapk Phosphatase Pac-1: Insights Into Substrate-Induced Enzymatic Activation'
p161
sg36
F94.44444444444444
sS'positive'
p162
I94
sS'evalue'
p163
F4.51192e-43
sg39
g40
sS'hit-frame'
p164
I0
sg42
S'1m3g'
p165
sS'bit-score'
p166
F142.51
sS'score'
p167
F358.0
sg46
I144
sg47
F94.44444444444444
sS'hseq'
p168
S'PVEILPYLFLGSCSHSSDLQGLQACGITAVLNVSASCPNHFE--GLFRYKSIPVEDNQMVEISAWFQEAIGFIDWVKNSGGRVLVHSQAGISRSATICLAYLMQSRRVRLDEAFDFVKQRRGVISPNFSFMGQLLQFE'
p169
sS'qseq'
p170
S'PVEILPFLYLGCAKDSTNLDVLEEFGIKYILNVTPNLPNLFENAGEFKYKQIPISDHWSQNLSQFFPEAISFIDEARGKNCGVLVHSLAGISRSVTVTVAYLMQKLNLSMNDAYDIVKMKKSNISPNFNFMGQLLDFE'
p171
sS'hit-to'
p172
I139
stp173
a(F49.27536231884058
F95.83333333333333
(dp174
g23
F49.27536231884058
sS'query-frame'
p175
I0
sS'hit-from'
p176
I7
sS'num'
p177
g11
sS'gaps'
p178
I0
sS'query-from'
p179
I7
sS'query-to'
p180
I144
sS'identity'
p181
I68
sS'midline'
p182
S'ILPFL+LG  +D+ +LD ++   I Y++NVT +LP      G F YK++P +D   QNL Q+F EA  FI+EA     G+L+H  AG+SRS T+ +AYLM+   ++M DAY  VK K+  ISPN NFMGQLL+FE  L'
p183
sS'align-len'
p184
I138
sg34
S'ChainA, Crystal Structure Of Catalytic Domain Of Human Map Kinase Phosphatase 5'
p185
sg36
F95.83333333333333
sS'positive'
p186
I92
sS'evalue'
p187
F1.50177e-36
sg39
g40
sS'hit-frame'
p188
I0
sg42
S'1zzw'
p189
sS'bit-score'
p190
F125.946
sS'score'
p191
F315.0
sg46
I144
sg47
F95.83333333333333
sS'hseq'
p192
S'ILPFLFLGNEQDAQDLDTMQRLNIGYVINVTTHLPLYHYEKGLFNYKRLPATDSNKQNLRQYFEEAFEFIEEAHQCGKGLLIHCQAGVSRSATIVIAYLMKHTRMTMTDAYKFVKGKRPIISPNLNFMGQLLEFEEDL'
p193
sS'qseq'
p194
S'ILPFLYLGCAKDSTNLDVLEEFGIKYILNVTPNLPNLFENAGEFKYKQIPISDHWSQNLSQFFPEAISFIDEARGKNCGVLVHSLAGISRSVTVTVAYLMQKLNLSMNDAYDIVKMKKSNISPNFNFMGQLLDFERTL'
p195
sS'hit-to'
p196
I144
stp197
a(F49.27536231884058
F95.83333333333333
(dp198
g23
F49.27536231884058
sg175
I0
sg176
I7
sg177
g11
sg178
I0
sg179
I7
sg180
I144
sg181
I68
sg182
g183
sg184
I138
sg34
S'Chain B, Crystal Structure Of Catalytic Domain Of Human Map Kinase Phosphatase 5'
p199
sg36
F95.83333333333333
sg186
I92
sg187
F1.50177e-36
sg39
g128
sg188
I0
sg42
S'1zzw'
p200
sg190
F125.946
sg191
F315.0
sg46
I144
sg47
F95.83333333333333
sg192
g193
sg194
g195
sg196
I144
stp201
a(F49.27536231884058
F95.83333333333333
(dp202
g23
F49.27536231884058
sS'query-frame'
p203
I0
sS'hit-from'
p204
I11
sS'num'
p205
g11
sS'gaps'
p206
I0
sS'query-from'
p207
I7
sS'query-to'
p208
I144
sS'identity'
p209
I68
sS'midline'
p210
S'ILPFL+LG  +D+ +LD ++   I Y++NVT +LP      G F YK++P +D   QNL Q+F EA  FI+EA     G+L+H  AG+SRS T+ +AYLM+   ++M DAY  VK K+  ISPN NFMGQLL+FE  L'
p211
sS'align-len'
p212
I138
sg34
S'ChainA, Crystal Structure Of The Catalytic Domain Of Human Mkp5'
p213
sg36
F95.83333333333333
sS'positive'
p214
I92
sS'evalue'
p215
F2.49125e-36
sg39
g40
sS'hit-frame'
p216
I0
sg42
S'2oud'
p217
sS'bit-score'
p218
F126.331
sS'score'
p219
F316.0
sg46
I144
sg47
F95.83333333333333
sS'hseq'
p220
S'ILPFLFLGNEQDAQDLDTMQRLNIGYVINVTTHLPLYHYEKGLFNYKRLPATDSNKQNLRQYFEEAFEFIEEAHQCGKGLLIHCQAGVSRSATIVIAYLMKHTRMTMTDAYKFVKGKRPIISPNLNFMGQLLEFEEDL'
p221
sS'qseq'
p222
S'ILPFLYLGCAKDSTNLDVLEEFGIKYILNVTPNLPNLFENAGEFKYKQIPISDHWSQNLSQFFPEAISFIDEARGKNCGVLVHSLAGISRSVTVTVAYLMQKLNLSMNDAYDIVKMKKSNISPNFNFMGQLLDFERTL'
p223
sS'hit-to'
p224
I148
stp225
a(F45.65217391304348
F94.44444444444444
(dp226
g23
F45.65217391304348
sS'query-frame'
p227
I0
sS'hit-from'
p228
I6
sS'num'
p229
g11
sS'gaps'
p230
I2
sS'query-from'
p231
I4
sS'query-to'
p232
I141
sS'identity'
p233
I63
sS'midline'
p234
S'PVEILPFLYLG A  ++  + L    I  +LNV+              YK IP+ D  + ++S  F EAI FID  R K   VLVHS AGISRS T+ +AYLM+     + +A+D +K ++S +SPNF FMGQLL +E'
p235
sS'align-len'
p236
I138
sg34
S'ChainA, Crystal Structure Of Human Dusp5'
p237
sg36
F94.44444444444444
sS'positive'
p238
I83
sS'evalue'
p239
F2.2102e-34
sg39
g40
sS'hit-frame'
p240
I0
sg42
S'2g6z'
p241
sS'bit-score'
p242
F122.094
sS'score'
p243
F305.0
sg46
I144
sg47
F94.44444444444444
sS'hseq'
p244
S'PVEILPFLYLGSAYHASKCEFLANLHITALLNVSRRTSEACMT--HLHYKWIPVEDSHTADISSHFQEAIDFIDCVREKGGKVLVHSEAGISRSPTICMAYLMKTKQFRLKEAFDYIKQRRSMVSPNFGFMGQLLQYE'
p245
sS'qseq'
p246
S'PVEILPFLYLGCAKDSTNLDVLEEFGIKYILNVTPNLPNLFENAGEFKYKQIPISDHWSQNLSQFFPEAISFIDEARGKNCGVLVHSLAGISRSVTVTVAYLMQKLNLSMNDAYDIVKMKKSNISPNFNFMGQLLDFE'
p247
sS'hit-to'
p248
I141
stp249
a(F45.65217391304348
F94.44444444444444
(dp250
g23
F45.65217391304348
sg227
I0
sg228
I6
sg229
g11
sg230
I2
sg231
I4
sg232
I141
sg233
I63
sg234
g235
sg236
I138
sg34
S'Chain B, Crystal Structure Of Human Dusp5'
p251
sg36
F94.44444444444444
sg238
I83
sg239
F2.2102e-34
sg39
g128
sg240
I0
sg42
S'2g6z'
p252
sg242
F122.094
sg243
F305.0
sg46
I144
sg47
F94.44444444444444
sg244
g245
sg246
g247
sg248
I141
stp253
a(F45.65217391304348
F94.44444444444444
(dp254
g23
F45.65217391304348
sg227
I0
sg228
I6
sg229
g11
sg230
I2
sg231
I4
sg232
I141
sg233
I63
sg234
g235
sg236
I138
sg34
S'Chain C, Crystal Structure Of Human Dusp5'
p255
sg36
F94.44444444444444
sg238
I83
sg239
F2.2102e-34
sg39
g133
sg240
I0
sg42
S'2g6z'
p256
sg242
F122.094
sg243
F305.0
sg46
I144
sg47
F94.44444444444444
sg244
g245
sg246
g247
sg248
I141
stp257
a(F39.416058394160586
F93.05555555555556
(dp258
g23
F39.416058394160586
sS'query-frame'
p259
I0
sS'hit-from'
p260
I9
sS'num'
p261
g11
sS'gaps'
p262
I3
sS'query-from'
p263
I6
sS'query-to'
p264
I142
sS'identity'
p265
I54
sS'midline'
p266
S'+ILP LY+G  KD+ + + L +  + +IL+V  +   + E     KY  IP +D  SQNL++ F E+I FI E R +    LVH LAG+SRSVT+ +AY+M   +    DA   V+  +S  +PN  F  QL +FE+'
p267
sS'align-len'
p268
I137
sg34
S'ChainA, Crystal Structure Of Jsp-1'
p269
sg36
F93.05555555555556
sS'positive'
p270
I80
sS'evalue'
p271
F6.56761e-26
sg39
g40
sS'hit-frame'
p272
I0
sg42
S'1wrm'
p273
sS'bit-score'
p274
F98.5969
sS'score'
p275
F244.0
sg46
I144
sg47
F93.05555555555556
sS'hseq'
p276
S'KILPGLYIGNFKDARDAEQLSKNKVTHILSVHDSARPMLEGV---KYLCIPAADSPSQNLTRHFKESIKFIHECRLRGESCLVHCLAGVSRSVTLVIAYIMTVTDFGWEDALHTVRAGRSCANPNVGFQRQLQEFEK'
p277
sS'qseq'
p278
S'EILPFLYLGCAKDSTNLDVLEEFGIKYILNVTPNLPNLFENAGEFKYKQIPISDHWSQNLSQFFPEAISFIDEARGKNCGVLVHSLAGISRSVTVTVAYLMQKLNLSMNDAYDIVKMKKSNISPNFNFMGQLLDFER'
p279
sS'hit-to'
p280
I142
stp281
a(F37.5
F93.05555555555556
(dp282
g23
F37.5
sS'query-frame'
p283
I0
sS'hit-from'
p284
I7
sS'num'
p285
g11
sS'gaps'
p286
I2
sS'query-from'
p287
I7
sS'query-to'
p288
I142
sS'identity'
p289
I51
sS'midline'
p290
S'I P+L LG    + +LD L++  + +ILNV   + N F    +F YK I I D    N+  +FPE   FI+EA+ K+  VLVHS AG+SR+  + + +LM     S   A+ +VK  + +I PN  FM QL  ++ '
p291
sS'align-len'
p292
I136
sg34
S'ChainA, Crystal Structrue Of A Novel Mitogen-Activated Protein Kinase Phosphatase, Skrp1'
p293
sg36
F93.05555555555556
sS'positive'
p294
I76
sS'evalue'
p295
F3.79662e-24
sg39
g40
sS'hit-frame'
p296
I0
sg42
S'3s4e'
p297
sS'bit-score'
p298
F93.5893
sS'score'
p299
F231.0
sg46
I144
sg47
F93.05555555555556
sS'hseq'
p300
S'IKPWLLLGSQDAAHDLDTLKKNKVTHILNVAYGVENAF--LSDFTYKSISILDLPETNILSYFPECFEFIEEAKRKDGVVLVHSNAGVSRAAAIVIGFLMNSEQTSFTSAFSLVKNARPSICPNSGFMEQLRTYQE'
p301
sS'qseq'
p302
S'ILPFLYLGCAKDSTNLDVLEEFGIKYILNVTPNLPNLFENAGEFKYKQIPISDHWSQNLSQFFPEAISFIDEARGKNCGVLVHSLAGISRSVTVTVAYLMQKLNLSMNDAYDIVKMKKSNISPNFNFMGQLLDFER'
p303
sS'hit-to'
p304
I140
stp305
a(F37.5
F92.36111111111111
(dp306
g23
F37.5
sS'query-frame'
p307
I0
sS'hit-from'
p308
I8
sS'num'
p309
g11
sS'gaps'
p310
I11
sS'query-from'
p311
I6
sS'query-to'
p312
I141
sS'identity'
p313
I51
sS'midline'
p314
S'EILP L+LG   +   + L VL++ GI +I+ +  N+      PN F+    F+Y  + I+D+  +N+ +FFP    FID +      VLVH  AGISRS    +AY+M+   +   DA+  V+ ++  I+PN  F+ QL ++E'
p315
sS'align-len'
p316
I144
sg34
S'ChainA, Crystal Structure Of Human Tyrosine Phosphatase-like Serine/threonine/tyrosine-interacting Protein'
p317
sg36
F92.36111111111111
sS'positive'
p318
I81
sS'evalue'
p319
F1.42082e-19
sg39
g40
sS'hit-frame'
p320
I0
sg42
S'2r0b'
p321
sS'bit-score'
p322
F81.6481
sS'score'
p323
F200.0
sg46
I144
sg47
F92.36111111111111
sS'hseq'
p324
S'EILPGLFLGPYSSAMKSKLPVLQKHGITHIICIRQNIEANFIKPN-FQQL--FRYLVLDIADNPVENIIRFFPMTKEFIDGSLQMGGKVLVHGNAGISRSAAFVIAYIMETFGMKYRDAFAYVQERRFCINPNAGFVHQLQEYE'
p325
sS'qseq'
p326
S'EILPFLYLG--CAKDSTNLDVLEEFGIKYILNVTPNL------PNLFENAGEFKYKQIPISDHWSQNLSQFFPEAISFIDEARGKNCGVLVHSLAGISRSVTVTVAYLMQKLNLSMNDAYDIVKMKKSNISPNFNFMGQLLDFE'
p327
sS'hit-to'
p328
I148
stp329
a(F36.029411764705884
F90.97222222222223
(dp330
g23
F36.029411764705884
sS'query-frame'
p331
I0
sS'hit-from'
p332
I9
sS'num'
p333
g11
sS'gaps'
p334
I7
sS'query-from'
p335
I5
sS'query-to'
p336
I140
sS'identity'
p337
I49
sS'midline'
p338
S' ++LP LYLG   D+ +LD L    I +I+++  +   L +   +  Y +IP++D     + + F E I+FI   R  G NC  LVHS AGISRS T+  AY+M    L   D  + +K  +   +PN  F  QL +F'
p339
sS'align-len'
p340
I138
sg34
S'ChainA, Crystal Structure Of Dusp15'
p341
sg36
F90.97222222222223
sS'positive'
p342
I73
sS'evalue'
p343
F2.30971e-18
sg39
g40
sS'hit-frame'
p344
I0
sg42
S'1yz4'
p345
sS'bit-score'
p346
F78.5666
sS'score'
p347
F192.0
sg46
I144
sg47
F90.97222222222223
sS'hseq'
p348
S'TKVLPGLYLGNFIDAKDLDQLGRNKITHIISIHESPQPLLQ---DITYLRIPVADTPEVPIKKHFKECINFIHCCRLNGGNC--LVHSFAGISRSTTIVTAYVMTVTGLGWRDVLEAIKATRPIANPNPGFRQQLEEF'
p349
sS'qseq'
p350
S'VEILPFLYLGCAKDSTNLDVLEEFGIKYILNVTPNLPNLFENAGEFKYKQIPISDHWSQNLSQFFPEAISFIDEAR--GKNCGVLVHSLAGISRSVTVTVAYLMQKLNLSMNDAYDIVKMKKSNISPNFNFMGQLLDF'
p351
sS'hit-to'
p352
I141
stp353
a(F36.029411764705884
F90.97222222222223
(dp354
g23
F36.029411764705884
sg331
I0
sg332
I9
sg333
g11
sg334
I7
sg335
I5
sg336
I140
sg337
I49
sg338
g339
sg340
I138
sg34
S'Chain B, Crystal Structure Of Dusp15'
p355
sg36
F90.97222222222223
sg342
I73
sg343
F2.30971e-18
sg39
g128
sg344
I0
sg42
S'1yz4'
p356
sg346
F78.5666
sg347
F192.0
sg46
I144
sg47
F90.97222222222223
sg348
g349
sg350
g351
sg352
I141
stp357
a(F35.97122302158273
F95.13888888888889
(dp358
g23
F35.97122302158273
sS'query-frame'
p359
I0
sS'hit-from'
p360
I31
sS'num'
p361
g11
sS'gaps'
p362
I11
sS'query-from'
p363
I6
sS'query-to'
p364
I144
sS'identity'
p365
I50
sS'midline'
p366
S'E+ P +Y+G A  + ++  L++ GI ++LN              N ++++G   Y  I  +D    NLS +F  A  FID+A   KN  VLVHS  G SRS T+ +AYLM +  + +  A  IV+  +  I PN  F+ QL      L'
p367
sS'align-len'
p368
I148
sg34
S'ChainA, Human Vh1-Related Dual-Specificity Phosphatase C124s Mutant- Peptide Complex'
p369
sg36
F95.13888888888889
sS'positive'
p370
I75
sS'evalue'
p371
F5.64549e-18
sg39
g40
sS'hit-frame'
p372
I0
sg42
S'1j4x'
p373
sS'bit-score'
p374
F77.7962
sS'score'
p375
F190.0
sg46
I144
sg47
F95.13888888888889
sS'hseq'
p376
S'EVTPRIYVGNASVAQDIPKLQKLGITHVLNAAEGRSFMHVNTNANFYKDSG-ITYLGIKANDTQEFNLSAYFERAADFIDQALAQKNGRVLVHSREGYSRSPTLVIAYLMMRQKMDVKSALSIVRQNRE-IGPNDGFLAQLCQLNDRL'
p377
sS'qseq'
p378
S'EILPFLYLGCAKDSTNLDVLEEFGIKYILNVTPNL--------PNLFENAGEFKYKQIPISDHWSQNLSQFFPEAISFIDEARG-KNCGVLVHSLAGISRSVTVTVAYLMQKLNLSMNDAYDIVKMKKSNISPNFNFMGQLLDFERTL'
p379
sS'hit-to'
p380
I176
stp381
a(F35.97122302158273
F95.13888888888889
(dp382
g23
F35.97122302158273
sS'query-frame'
p383
I0
sS'hit-from'
p384
I5
sS'num'
p385
g11
sS'gaps'
p386
I7
sS'query-from'
p387
I6
sS'query-to'
p388
I144
sS'identity'
p389
I50
sS'midline'
p390
S'E+ P LYLG    + N   L   GI ++LN + +     P  +E  G  +Y  +   D  + ++S  F  A  FI  A  +  G +LVHS  G+SRS T+ +AYLM   +L++ +A   VK  +  I PN  F+ QLL  +R L'
p391
sS'align-len'
p392
I144
sg34
S'ChainA, Atomic Structure Of Dusp26'
p393
sg36
F95.13888888888889
sS'positive'
p394
I74
sS'evalue'
p395
F1.97056e-16
sg39
g40
sS'hit-frame'
p396
I0
sg42
S'4hrf'
p397
sS'bit-score'
p398
F73.1738
sS'score'
p399
F178.0
sg46
I144
sg47
F95.13888888888889
sS'hseq'
p400
S'EVWPGLYLGDQDMANNRRELRRLGITHVLNASHSRWRGTPEAYEGLG-IRYLGVEAHDSPAFDMSIHFQTAADFIHRALSQPGGKILVHSAVGVSRSATLVLAYLMLYHHLTLVEAIKKVKDHR-GIIPNRGFLRQLLALDRRL'
p401
sS'qseq'
p402
S'EILPFLYLGCAKDSTNLDVLEEFGIKYILNVTPN----LPNLFENAGEFKYKQIPISDHWSQNLSQFFPEAISFIDEARGKNCG-VLVHSLAGISRSVTVTVAYLMQKLNLSMNDAYDIVKMKKSNISPNFNFMGQLLDFERTL'
p403
sS'hit-to'
p404
I146
stp405
a(F35.97122302158273
F95.13888888888889
(dp406
g23
F35.97122302158273
sg383
I0
sg384
I5
sg385
g11
sg386
I7
sg387
I6
sg388
I144
sg389
I50
sg390
g391
sg392
I144
sg34
S'Chain B, Atomic Structure Of Dusp26'
p407
sg36
F95.13888888888889
sg394
I74
sg395
F1.97056e-16
sg39
g128
sg396
I0
sg42
S'4hrf'
p408
sg398
F73.1738
sg399
F178.0
sg46
I144
sg47
F95.13888888888889
sg400
g401
sg402
g403
sg404
I146
stp409
a(F35.97122302158273
F95.13888888888889
(dp410
g23
F35.97122302158273
sg383
I0
sg384
I5
sg385
g11
sg386
I7
sg387
I6
sg388
I144
sg389
I50
sg390
g391
sg392
I144
sg34
S'Chain C, Atomic Structure Of Dusp26'
p411
sg36
F95.13888888888889
sg394
I74
sg395
F1.97056e-16
sg39
g133
sg396
I0
sg42
S'4hrf'
p412
sg398
F73.1738
sg399
F178.0
sg46
I144
sg47
F95.13888888888889
sg400
g401
sg402
g403
sg404
I146
stp413
a(F35.97122302158273
F95.13888888888889
(dp414
g23
F35.97122302158273
sg383
I0
sg384
I5
sg385
g11
sg386
I7
sg387
I6
sg388
I144
sg389
I50
sg390
g391
sg392
I144
sg34
S'Chain D, Atomic Structure Of Dusp26'
p415
sg36
F95.13888888888889
sg394
I74
sg395
F1.97056e-16
sg39
g138
sg396
I0
sg42
S'4hrf'
p416
sg398
F73.1738
sg399
F178.0
sg46
I144
sg47
F95.13888888888889
sg400
g401
sg402
g403
sg404
I146
stp417
a(F35.97122302158273
F95.13888888888889
(dp418
g23
F35.97122302158273
sg383
I0
sg384
I5
sg385
g11
sg386
I7
sg387
I6
sg388
I144
sg389
I50
sg390
g391
sg392
I144
sg34
S'Chain A, Crystal Structure Of The Catalytic Domain Of Human Dusp26 (c152s)'
p419
sg36
F95.13888888888889
sg394
I74
sg395
F1.97056e-16
sg39
g40
sg396
I0
sg42
S'4b04'
p420
sg398
F73.1738
sg399
F178.0
sg46
I144
sg47
F95.13888888888889
sg400
g401
sg402
g403
sg404
I146
stp421
a(F35.97122302158273
F95.13888888888889
(dp422
g23
F35.97122302158273
sg383
I0
sg384
I5
sg385
g11
sg386
I7
sg387
I6
sg388
I144
sg389
I50
sg390
g391
sg392
I144
sg34
S'Chain B, Crystal Structure Of The Catalytic Domain Of Human Dusp26 (c152s)'
p423
sg36
F95.13888888888889
sg394
I74
sg395
F1.97056e-16
sg39
g128
sg396
I0
sg42
S'4b04'
p424
sg398
F73.1738
sg399
F178.0
sg46
I144
sg47
F95.13888888888889
sg400
g401
sg402
g403
sg404
I146
stp425
a(F35.97122302158273
F95.13888888888889
(dp426
g23
F35.97122302158273
sg383
I0
sg384
I5
sg385
g11
sg386
I7
sg387
I6
sg388
I144
sg389
I50
sg390
g391
sg392
I144
sg34
S'Chain C, Crystal Structure Of The Catalytic Domain Of Human Dusp26 (c152s)'
p427
sg36
F95.13888888888889
sg394
I74
sg395
F1.97056e-16
sg39
g133
sg396
I0
sg42
S'4b04'
p428
sg398
F73.1738
sg399
F178.0
sg46
I144
sg47
F95.13888888888889
sg400
g401
sg402
g403
sg404
I146
stp429
a(F35.97122302158273
F95.13888888888889
(dp430
g23
F35.97122302158273
sg383
I0
sg384
I5
sg385
g11
sg386
I7
sg387
I6
sg388
I144
sg389
I50
sg390
g391
sg392
I144
sg34
S'Chain D, Crystal Structure Of The Catalytic Domain Of Human Dusp26 (c152s)'
p431
sg36
F95.13888888888889
sg394
I74
sg395
F1.97056e-16
sg39
g138
sg396
I0
sg42
S'4b04'
p432
sg398
F73.1738
sg399
F178.0
sg46
I144
sg47
F95.13888888888889
sg400
g401
sg402
g403
sg404
I146
stp433
a(F35.25179856115108
F95.13888888888889
(dp434
g23
F35.25179856115108
sS'query-frame'
p435
I0
sS'hit-from'
p436
I28
sS'num'
p437
g11
sS'gaps'
p438
I2
sS'query-from'
p439
I6
sS'query-to'
p440
I144
sS'identity'
p441
I49
sS'midline'
p442
S'+I   L+LG    ++N  +L+  GI  I+N T  +PN   N  +F+Y ++P++D     +  +F      I     K+   LVH  AG+SRS T+ +AYLM+  N+ + +AY+ VK ++  I PN  F  QL+D+ER L'
p443
sS'align-len'
p444
I139
sg34
S'ChainA, Crystal Structure Of Human Dual Specificity Phosphatase 14'
p445
sg36
F95.13888888888889
sS'positive'
p446
I78
sS'evalue'
p447
F6.10364e-23
sg39
g40
sS'hit-frame'
p448
I0
sg42
S'2wgp'
p449
sS'bit-score'
p450
F91.2781
sS'score'
p451
F225.0
sg46
I144
sg47
F95.13888888888889
sS'hseq'
p452
S'QITSSLFLGRGSVASNRHLLQARGITCIVNATIEIPNF--NWPQFEYVKVPLADMPHAPIGLYFDTVADKIHSVSRKHGATLVHCAAGVSRSATLCIAYLMKFHNVCLLEAYNWVKARRPVIRPNVGFWRQLIDYERQL'
p453
sS'qseq'
p454
S'EILPFLYLGCAKDSTNLDVLEEFGIKYILNVTPNLPNLFENAGEFKYKQIPISDHWSQNLSQFFPEAISFIDEARGKNCGVLVHSLAGISRSVTVTVAYLMQKLNLSMNDAYDIVKMKKSNISPNFNFMGQLLDFERTL'
p455
sS'hit-to'
p456
I164
stp457
a(F35.25179856115108
F95.13888888888889
(dp458
g23
F35.25179856115108
sg435
I0
sg436
I28
sg437
g11
sg438
I2
sg439
I6
sg440
I144
sg441
I49
sg442
g443
sg444
I139
sg34
S'Chain B, Crystal Structure Of Human Dual Specificity Phosphatase 14'
p459
sg36
F95.13888888888889
sg446
I78
sg447
F6.10364e-23
sg39
g128
sg448
I0
sg42
S'2wgp'
p460
sg450
F91.2781
sg451
F225.0
sg46
I144
sg47
F95.13888888888889
sg452
g453
sg454
g455
sg456
I164
stp461
a(F35.25179856115108
F95.13888888888889
(dp462
g23
F35.25179856115108
sS'query-frame'
p463
I0
sS'hit-from'
p464
I31
sS'num'
p465
g11
sS'gaps'
p466
I11
sS'query-from'
p467
I6
sS'query-to'
p468
I144
sS'identity'
p469
I49
sS'midline'
p470
S'E+ P +Y+G A  + ++  L++ GI ++LN              N ++++G   Y  I  +D    NLS +F  A  FID+A   KN  VLVH   G SRS T+ +AYLM +  + +  A  IV+  +  I PN  F+ QL      L'
p471
sS'align-len'
p472
I148
sg34
S'ChainA, Human Vh1-Related Dual-Specificity Phosphatase'
p473
sg36
F95.13888888888889
sS'positive'
p474
I74
sS'evalue'
p475
F2.4291e-17
sg39
g40
sS'hit-frame'
p476
I0
sg42
S'1vhr'
p477
sS'bit-score'
p478
F75.8702
sS'score'
p479
F185.0
sg46
I144
sg47
F95.13888888888889
sS'hseq'
p480
S'EVTPRIYVGNASVAQDIPKLQKLGITHVLNAAEGRSFMHVNTNANFYKDSG-ITYLGIKANDTQEFNLSAYFERAADFIDQALAQKNGRVLVHCREGYSRSPTLVIAYLMMRQKMDVKSALSIVRQNRE-IGPNDGFLAQLCQLNDRL'
p481
sS'qseq'
p482
S'EILPFLYLGCAKDSTNLDVLEEFGIKYILNVTPNL--------PNLFENAGEFKYKQIPISDHWSQNLSQFFPEAISFIDEARG-KNCGVLVHSLAGISRSVTVTVAYLMQKLNLSMNDAYDIVKMKKSNISPNFNFMGQLLDFERTL'
p483
sS'hit-to'
p484
I176
stp485
a(F35.25179856115108
F95.13888888888889
(dp486
g23
F35.25179856115108
sg463
I0
sg464
I31
sg465
g11
sg466
I11
sg467
I6
sg468
I144
sg469
I49
sg470
g471
sg472
I148
sg34
S'Chain B, Human Vh1-Related Dual-Specificity Phosphatase'
p487
sg36
F95.13888888888889
sg474
I74
sg475
F2.4291e-17
sg39
g128
sg476
I0
sg42
S'1vhr'
p488
sg478
F75.8702
sg479
F185.0
sg46
I144
sg47
F95.13888888888889
sg480
g481
sg482
g483
sg484
I176
stp489
a(F35.25179856115108
F95.13888888888889
(dp490
g23
F35.25179856115108
sS'query-frame'
p491
I0
sS'hit-from'
p492
I30
sS'num'
p493
g11
sS'gaps'
p494
I11
sS'query-from'
p495
I6
sS'query-to'
p496
I144
sS'identity'
p497
I49
sS'midline'
p498
S'E+ P +Y+G A  + ++  L++ GI ++LN              N ++++G   Y  I  +D    NLS +F  A  FID+A   KN  VLVH   G SRS T+ +AYLM +  + +  A  IV+  +  I PN  F+ QL      L'
p499
sS'align-len'
p500
I148
sg34
S'ChainA, Interaction Of Vhr With Sa3'
p501
sg36
F95.13888888888889
sS'positive'
p502
I74
sS'evalue'
p503
F2.57438e-17
sg39
g40
sS'hit-frame'
p504
I0
sg42
S'3f81'
p505
sS'bit-score'
p506
F75.8702
sS'score'
p507
F185.0
sg46
I144
sg47
F95.13888888888889
sS'hseq'
p508
S'EVTPRIYVGNASVAQDIPKLQKLGITHVLNAAEGRSFMHVNTNANFYKDSG-ITYLGIKANDTQEFNLSAYFERAADFIDQALAQKNGRVLVHCREGYSRSPTLVIAYLMMRQKMDVKSALSIVRQNRE-IGPNDGFLAQLCQLNDRL'
p509
sS'qseq'
p510
S'EILPFLYLGCAKDSTNLDVLEEFGIKYILNVTPNL--------PNLFENAGEFKYKQIPISDHWSQNLSQFFPEAISFIDEARG-KNCGVLVHSLAGISRSVTVTVAYLMQKLNLSMNDAYDIVKMKKSNISPNFNFMGQLLDFERTL'
p511
sS'hit-to'
p512
I175
stp513
a(F35.25179856115108
F95.13888888888889
(dp514
g23
F35.25179856115108
sg491
I0
sg492
I30
sg493
g11
sg494
I11
sg495
I6
sg496
I144
sg497
I49
sg498
g499
sg500
I148
sg34
S'Chain B, Interaction Of Vhr With Sa3'
p515
sg36
F95.13888888888889
sg502
I74
sg503
F2.57438e-17
sg39
g128
sg504
I0
sg42
S'3f81'
p516
sg506
F75.8702
sg507
F185.0
sg46
I144
sg47
F95.13888888888889
sg508
g509
sg510
g511
sg512
I175
stp517
a(F35.25179856115108
F95.13888888888889
(dp518
g23
F35.25179856115108
sS'query-frame'
p519
I0
sS'hit-from'
p520
I4
sS'num'
p521
g11
sS'gaps'
p522
I7
sS'query-from'
p523
I6
sS'query-to'
p524
I144
sS'identity'
p525
I49
sS'midline'
p526
S'E+ P LYLG    + N   L   GI ++LN + +     P  +E  G  +Y  +   D  + ++S  F  A  FI  A  +  G +LVH   G+SRS T+ +AYLM   +L++ +A   VK  +  I PN  F+ QLL  +R L'
p527
sS'align-len'
p528
I144
sg34
S'ChainA, Crystal Structure Of Catalytic Domain Of Dual Specificity Phosphatase 26, Ms0830 From Homo Sapiens'
p529
sg36
F95.13888888888889
sS'positive'
p530
I73
sS'evalue'
p531
F9.8187e-16
sg39
g40
sS'hit-frame'
p532
I0
sg42
S'2e0t'
p533
sS'bit-score'
p534
F70.8626
sS'score'
p535
F172.0
sg46
I144
sg47
F95.13888888888889
sS'hseq'
p536
S'EVWPGLYLGDQDMANNRRELRRLGITHVLNASHSRWRGTPEAYEGLG-IRYLGVEAHDSPAFDMSIHFQTAADFIHRALSQPGGKILVHCAVGVSRSATLVLAYLMLYHHLTLVEAIKKVKDHR-GIIPNRGFLRQLLALDRRL'
p537
sS'qseq'
p538
S'EILPFLYLGCAKDSTNLDVLEEFGIKYILNVTPN----LPNLFENAGEFKYKQIPISDHWSQNLSQFFPEAISFIDEARGKNCG-VLVHSLAGISRSVTVTVAYLMQKLNLSMNDAYDIVKMKKSNISPNFNFMGQLLDFERTL'
p539
sS'hit-to'
p540
I145
stp541
a(F34.95145631067961
F70.13888888888889
(dp542
g23
F34.95145631067961
sS'query-frame'
p543
I0
sS'hit-from'
p544
I71
sS'num'
p545
g11
sS'gaps'
p546
I9
sS'query-from'
p547
I42
sS'query-to'
p548
I144
sS'identity'
p549
I36
sS'midline'
p550
S'N+ E A + +  Q+P  ++    W  + SQ     P   S I  A  K   +L+HS  G+SRS T+ +AY+M+  NLS+  +YD++K +   I+P+   + QL+++E  L'
p551
sS'align-len'
p552
I110
sg34
S'ChainA, Ptyr Bound Form Of Sdp-1'
p553
sg36
F70.13888888888889
sS'positive'
p554
I61
sS'evalue'
p555
F4.76015e-13
sg39
g40
sS'hit-frame'
p556
I0
sg42
S'2j17'
p557
sS'bit-score'
p558
F63.929
sS'score'
p559
F154.0
sg46
I144
sg47
F70.13888888888889
sS'hseq'
p560
S'NVAEEANDLRM-QVPAVEYHHYRWEHD-SQIALDLPSLTSIIHAATTKREKILIHSQCGLSRSATLIIAYIMKYHNLSLRHSYDLLKSRADKINPSIGLIFQLMEWEVAL'
p561
sS'qseq'
p562
S'NLFENAGEFKYKQIPISDH----WSQNLSQF---FPEAISFIDEARGKNCGVLVHSLAGISRSVTVTVAYLMQKLNLSMNDAYDIVKMKKSNISPNFNFMGQLLDFERTL'
p563
sS'hit-to'
p564
I178
stp565
a(F34.95145631067961
F70.13888888888889
(dp566
g23
F34.95145631067961
sg543
I0
sg544
I71
sg545
g11
sg546
I9
sg547
I42
sg548
I144
sg549
I36
sg550
g551
sg552
I110
sg34
S'Chain B, Ptyr Bound Form Of Sdp-1'
p567
sg36
F70.13888888888889
sg554
I61
sg555
F4.76015e-13
sg39
g128
sg556
I0
sg42
S'2j17'
p568
sg558
F63.929
sg559
F154.0
sg46
I144
sg47
F70.13888888888889
sg560
g561
sg562
g563
sg564
I178
stp569
a(F34.69387755102041
F63.888888888888886
(dp570
g23
F34.69387755102041
sS'query-frame'
p571
I0
sS'hit-from'
p572
I39
sS'num'
p573
g11
sS'gaps'
p574
I9
sS'query-from'
p575
I11
sS'query-to'
p576
I108
sS'identity'
p577
I34
sS'midline'
p578
S'+YLG  K++ +     E   KY+LN+T +   LPN            IP+ D  + ++S++F +  +F+ +   +N  VLVHS AG++RS  + +AYLM K'
p579
sS'align-len'
p580
I101
sg34
S'ChainA, Crystal Structure Of The Vaccinia Virus Dual-Specificity Phosphatase Vh1'
p581
sg36
F63.888888888888886
sS'positive'
p582
I56
sS'evalue'
p583
F5.96569e-10
sg39
g40
sS'hit-frame'
p584
I0
sg42
S'2rf6'
p585
sS'bit-score'
p586
F54.6842
sS'score'
p587
F130.0
sg46
I144
sg47
F63.888888888888886
sS'hseq'
p588
S'VYLGNYKNAMDAPS-SEVKFKYVLNLTMDKYTLPN-----SNINIIHIPLVDDTTTDISKYFDDVTAFLSKCDQRNEPVLVHSAAGVNRSGAMILAYLMSK'
p589
sS'qseq'
p590
S'LYLGCAKDSTNLDVLEEFGIKYILNVTPN---LPNLFENAGEFKYKQIPISDHWSQNLSQFFPEAISFIDEARGKNCGVLVHSLAGISRSVTVTVAYLMQK'
p591
sS'hit-to'
p592
I133
stp593
a(F34.69387755102041
F63.888888888888886
(dp594
g23
F34.69387755102041
sg571
I0
sg572
I39
sg573
g11
sg574
I9
sg575
I11
sg576
I108
sg577
I34
sg578
g579
sg580
I101
sg34
S'Chain A, High Resolution Crystal Structure Of The Vaccinia Virus Dual-Specificity Phosphatase Vh1'
p595
sg36
F63.888888888888886
sg582
I56
sg583
F5.96569e-10
sg39
g40
sg584
I0
sg42
S'3cm3'
p596
sg586
F54.6842
sg587
F130.0
sg46
I144
sg47
F63.888888888888886
sg588
g589
sg590
g591
sg592
I133
stp597
a(F34.04255319148936
F96.52777777777777
(dp598
g23
F34.04255319148936
sS'query-frame'
p599
I0
sS'hit-from'
p600
I4
sS'num'
p601
g11
sS'gaps'
p602
I2
sS'query-from'
p603
I4
sS'query-to'
p604
I144
sS'identity'
p605
I48
sS'midline'
p606
S'P +I   ++LG   +++NL+ L+  G++YILNVT  + N F   G F+Y  I + D  + +L  ++ +   FI +A+      LVHS  G+SRS +  +AY M++   +++ AYD VK +++   PN +FM QL +++  L'
p607
sS'align-len'
p608
I141
sg34
S'ChainA, Crystal Structure Of Slingshot Phosphatase 2'
p609
sg36
F96.52777777777777
sS'positive'
p610
I83
sS'evalue'
p611
F1.06375e-25
sg39
g40
sS'hit-frame'
p612
I0
sg42
S'2nt2'
p613
sS'bit-score'
p614
F97.4413
sS'score'
p615
F241.0
sg46
I144
sg47
F96.52777777777777
sS'hseq'
p616
S'PTQIFEHVFLGSEWNASNLEDLQNRGVRYILNVTREIDNFF--PGVFEYHNIRVYDEEATDLLAYWNDTYKFISKAKKHGSKCLVHSKMGVSRSASTVIAYAMKEYGWNLDRAYDYVKERRTVTKPNPSFMRQLEEYQGIL'
p617
sS'qseq'
p618
S'PVEILPFLYLGCAKDSTNLDVLEEFGIKYILNVTPNLPNLFENAGEFKYKQIPISDHWSQNLSQFFPEAISFIDEARGKNCGVLVHSLAGISRSVTVTVAYLMQKLNLSMNDAYDIVKMKKSNISPNFNFMGQLLDFERTL'
p619
sS'hit-to'
p620
I142
stp621
a(F34.04255319148936
F96.52777777777777
(dp622
g23
F34.04255319148936
sg599
I0
sg600
I4
sg601
g11
sg602
I2
sg603
I4
sg604
I144
sg605
I48
sg606
g607
sg608
I141
sg34
S'Chain B, Crystal Structure Of Slingshot Phosphatase 2'
p623
sg36
F96.52777777777777
sg610
I83
sg611
F1.06375e-25
sg39
g128
sg612
I0
sg42
S'2nt2'
p624
sg614
F97.4413
sg615
F241.0
sg46
I144
sg47
F96.52777777777777
sg616
g617
sg618
g619
sg620
I142
stp625
a(F34.04255319148936
F96.52777777777777
(dp626
g23
F34.04255319148936
sg599
I0
sg600
I4
sg601
g11
sg602
I2
sg603
I4
sg604
I144
sg605
I48
sg606
g607
sg608
I141
sg34
S'Chain C, Crystal Structure Of Slingshot Phosphatase 2'
p627
sg36
F96.52777777777777
sg610
I83
sg611
F1.06375e-25
sg39
g133
sg612
I0
sg42
S'2nt2'
p628
sg614
F97.4413
sg615
F241.0
sg46
I144
sg47
F96.52777777777777
sg616
g617
sg618
g619
sg620
I142
stp629
a(F33.980582524271846
F70.13888888888889
(dp630
g23
F33.980582524271846
sS'query-frame'
p631
I0
sS'hit-from'
p632
I71
sS'num'
p633
g11
sS'gaps'
p634
I9
sS'query-from'
p635
I42
sS'query-to'
p636
I144
sS'identity'
p637
I35
sS'midline'
p638
S'N+ E A + +  Q+P  ++    W  + SQ     P   S I  A  K   +L+H   G+SRS T+ +AY+M+  NLS+  +YD++K +   I+P+   + QL+++E  L'
p639
sS'align-len'
p640
I110
sg34
S'ChainB, Apo & Sulphate Bound Forms Of Sdp-1'
p641
sg36
F70.13888888888889
sS'positive'
p642
I60
sS'evalue'
p643
F1.80442e-12
sg39
g128
sS'hit-frame'
p644
I0
sg42
S'2j16'
p645
sS'bit-score'
p646
F62.003
sS'score'
p647
F149.0
sg46
I144
sg47
F70.13888888888889
sS'hseq'
p648
S'NVAEEANDLRM-QVPAVEYHHYRWEHD-SQIALDLPSLTSIIHAATTKREKILIHCQCGLSRSATLIIAYIMKYHNLSLRHSYDLLKSRADKINPSIGLIFQLMEWEVAL'
p649
sS'qseq'
p650
S'NLFENAGEFKYKQIPISDH----WSQNLSQF---FPEAISFIDEARGKNCGVLVHSLAGISRSVTVTVAYLMQKLNLSMNDAYDIVKMKKSNISPNFNFMGQLLDFERTL'
p651
sS'hit-to'
p652
I178
stp653
a(F33.980582524271846
F70.13888888888889
(dp654
g23
F33.980582524271846
sS'query-frame'
p655
I0
sS'hit-from'
p656
I71
sS'num'
p657
g11
sS'gaps'
p658
I9
sS'query-from'
p659
I42
sS'query-to'
p660
I144
sS'identity'
p661
I35
sS'midline'
p662
S'N+ E A + +  Q+P  ++    W  + SQ     P   S I  A  K   +L+H   G+SRS T+ +AY+M+  NLS+  +YD++K +   I+P+   + QL+++E  L'
p663
sS'align-len'
p664
I110
sg34
S'ChainA, Apo & Sulphate Bound Forms Of Sdp-1'
p665
sg36
F70.13888888888889
sS'positive'
p666
I60
sS'evalue'
p667
F1.96568e-12
sg39
g40
sS'hit-frame'
p668
I0
sg42
S'2j16'
p669
sS'bit-score'
p670
F62.003
sS'score'
p671
F149.0
sg46
I144
sg47
F70.13888888888889
sS'hseq'
p672
S'NVAEEANDLRM-QVPAVEYHHYRWEHD-SQIALDLPSLTSIIHAATTKREKILIHXQCGLSRSATLIIAYIMKYHNLSLRHSYDLLKSRADKINPSIGLIFQLMEWEVAL'
p673
sS'qseq'
p674
S'NLFENAGEFKYKQIPISDH----WSQNLSQF---FPEAISFIDEARGKNCGVLVHSLAGISRSVTVTVAYLMQKLNLSMNDAYDIVKMKKSNISPNFNFMGQLLDFERTL'
p675
sS'hit-to'
p676
I178
stp677
a(F32.37410071942446
F94.44444444444444
(dp678
g23
F32.37410071942446
sS'query-frame'
p679
I0
sS'hit-from'
p680
I56
sS'num'
p681
g11
sS'gaps'
p682
I11
sS'query-from'
p683
I6
sS'query-to'
p684
I144
sS'identity'
p685
I45
sS'midline'
p686
S'E+ P LY+G    + +   L++ G  ++LN      N+  + G   Y+ + I  H  +       +LS FF  A +FID A    +  +LVH + G SRS T+ +AYLM   ++++ DA   V  K   + PN  F+ QL + ++ L'
p687
sS'align-len'
p688
I147
sg34
S'ChainA, Structure Of Human Dual-Specificity Phosphatase 27'
p689
sg36
F94.44444444444444
sS'positive'
p690
I74
sS'evalue'
p691
F2.56239e-12
sg39
g40
sS'hit-frame'
p692
I0
sg42
S'2y96'
p693
sS'bit-score'
p694
F62.003
sS'score'
p695
F149.0
sg46
I144
sg47
F94.44444444444444
sS'hseq'
p696
S'EVWPKLYIGDEATALDRYRLQKAGFTHVLNAAHGRWNV--DTGPDYYRDMDIQYHGVEADDLPTFDLSVFFYPAAAFIDRALSDDHSKILVHCVMGRSRSATLVLAYLMIHKDMTLVDAIQQV-AKNRCVLPNRGFLKQLRELDKQL'
p697
sS'qseq'
p698
S'EILPFLYLGCAKDSTNLDVLEEFGIKYILNVTPNLPNLFENAGEFKYKQIPISDHWSQ-------NLSQFFPEAISFIDEA-RGKNCGVLVHSLAGISRSVTVTVAYLMQKLNLSMNDAYDIVKMKKSNISPNFNFMGQLLDFERTL'
p699
sS'hit-to'
p700
I199
stp701
a(F32.37410071942446
F94.44444444444444
(dp702
g23
F32.37410071942446
sg679
I0
sg680
I56
sg681
g11
sg682
I11
sg683
I6
sg684
I144
sg685
I45
sg686
g687
sg688
I147
sg34
S'Chain B, Structure Of Human Dual-Specificity Phosphatase 27'
p703
sg36
F94.44444444444444
sg690
I74
sg691
F2.56239e-12
sg39
g128
sg692
I0
sg42
S'2y96'
p704
sg694
F62.003
sg695
F149.0
sg46
I144
sg47
F94.44444444444444
sg696
g697
sg698
g699
sg700
I199
stp705
a(F30.88235294117647
F92.36111111111111
(dp706
g23
F30.88235294117647
sS'query-frame'
p707
I0
sS'hit-from'
p708
I22
sS'num'
p709
g11
sS'gaps'
p710
I4
sS'query-from'
p711
I6
sS'query-to'
p712
I141
sS'identity'
p713
I42
sS'midline'
p714
S'+I   LY+     + N  +L    I  ++NV+  + N L+E   + +Y Q+P++D  +  L  FF      I     K    L+H  AG+SRS  + +AYLM+   +S+ DA+   K  +  I PN  F  QL+ +E'
p715
sS'align-len'
p716
I137
sg34
S'ChainA, Crystal Structure Of Human Dusp18'
p717
sg36
F92.36111111111111
sS'positive'
p718
I68
sS'evalue'
p719
F1.93583e-13
sg39
g40
sS'hit-frame'
p720
I0
sg42
S'2esb'
p721
sS'bit-score'
p722
F65.0846
sS'score'
p723
F157.0
sg46
I144
sg47
F92.36111111111111
sS'hseq'
p724
S'QITKSLYISNGVAANNKLMLSSNQITMVINVSVEVVNTLYE---DIQYMQVPVADSPNSRLCDFFDPIADHIHSVEMKQGRTLLHCAAGVSRSAALCLAYLMKYHAMSLLDAHTWTKSCRPIIRPNSGFWEQLIHYE'
p725
sS'qseq'
p726
S'EILPFLYLGCAKDSTNLDVLEEFGIKYILNVTPNLPN-LFENAGEFKYKQIPISDHWSQNLSQFFPEAISFIDEARGKNCGVLVHSLAGISRSVTVTVAYLMQKLNLSMNDAYDIVKMKKSNISPNFNFMGQLLDFE'
p727
sS'hit-to'
p728
I155
stp729
a(F27.142857142857142
F95.83333333333333
(dp730
g23
F27.142857142857142
sS'query-frame'
p731
I0
sS'hit-from'
p732
I13
sS'num'
p733
g11
sS'gaps'
p734
I2
sS'query-from'
p735
I5
sS'query-to'
p736
I144
sS'identity'
p737
I38
sS'midline'
p738
S'  + P L++G A+ +   ++L   GI   +NV+   P     A      ++P+ D  +++L        + ++ A       LV+   G SRS  V  AYLM+    S++ A+ +VK  +    PN  F  QL  +E+TL'
p739
sS'align-len'
p740
I140
sg34
S'ChainA, Crystal Structure Of Mouse Putative Dual Specificity Phosphatase Complexed With Zinc Tungstate, New York Structural Genomics Consortium'
p741
sg36
F95.83333333333333
sS'positive'
p742
I65
sS'evalue'
p743
F7.27389e-13
sg39
g40
sS'hit-frame'
p744
I0
sg42
S'2hcm'
p745
sS'bit-score'
p746
F63.1586
sS'score'
p747
F152.0
sg46
I144
sg47
F95.83333333333333
sS'hseq'
p748
S'ARVAPALFIGNARAAGATELLVRAGITLCVNVSRQQPG--PRAPGVAELRVPVFDDPAEDLLTHLEPTCAAMEAAVRDGGSCLVYCKNGRSRSAAVCTAYLMRHRGHSLDRAFQMVKSARPVAEPNLGFWAQLQKYEQTL'
p749
sS'qseq'
p750
S'VEILPFLYLGCAKDSTNLDVLEEFGIKYILNVTPNLPNLFENAGEFKYKQIPISDHWSQNLSQFFPEAISFIDEARGKNCGVLVHSLAGISRSVTVTVAYLMQKLNLSMNDAYDIVKMKKSNISPNFNFMGQLLDFERTL'
p751
sS'hit-to'
p752
I150
stp753
asb.