ccopy_reg
_reconstructor
p0
(cprody.proteins.blastpdb
PDBBlastRecord
p1
c__builtin__
object
p2
Ntp3
Rp4
(dp5
S'_param'
p6
(dp7
S'filter'
p8
S'F'
p9
sS'gap-extend'
p10
S'1'
p11
sS'gap-open'
p12
S'11'
p13
sS'matrix'
p14
S'BLOSUM62'
p15
sS'expect'
p16
S'10'
p17
ssS'_sequence'
p18
S'GDVEKGKKIFVQKCAQCHTVEKGGKHKTGPNLHGLFGRKTGQAPGFTYTDANKNKGITWKEETLMEYLENPKKYIPGTKMIFAGIKKKTEREDLIAYLKKATNE'
p19
sS'_hits'
p20
(lp21
(F100.0
F100.0
(dp22
S'percent_identity'
p23
F100.0
sS'query-frame'
p24
I0
sS'hit-from'
p25
I1
sS'num'
p26
g11
sS'gaps'
p27
I0
sS'query-from'
p28
I1
sS'query-to'
p29
I104
sS'identity'
p30
I104
sS'midline'
p31
S'GDVEKGKKIFVQKCAQCHTVEKGGKHKTGPNLHGLFGRKTGQAPGFTYTDANKNKGITWKEETLMEYLENPKKYIPGTKMIFAGIKKKTEREDLIAYLKKATNE'
p32
sS'align-len'
p33
I104
sS'title'
p34
S'ChainB, Crystal Structure Of A Complex Between Electron Transfer Partners, Cytochrome C Peroxidase And Cytochrome C'
p35
sS'percent_overlap'
p36
F100.0
sS'positive'
p37
I104
sS'evalue'
p38
F9.61061e-72
sS'chain_id'
p39
S'B'
p40
sS'hit-frame'
p41
I0
sS'pdb_id'
p42
S'2pcb'
p43
sS'bit-score'
p44
F212.616
sS'score'
p45
F540.0
sS'query-len'
p46
I104
sS'percent_coverage'
p47
F100.0
sS'hseq'
p48
S'GDVEKGKKIFVQKCAQCHTVEKGGKHKTGPNLHGLFGRKTGQAPGFTYTDANKNKGITWKEETLMEYLENPKKYIPGTKMIFAGIKKKTEREDLIAYLKKATNE'
p49
sS'qseq'
p50
S'GDVEKGKKIFVQKCAQCHTVEKGGKHKTGPNLHGLFGRKTGQAPGFTYTDANKNKGITWKEETLMEYLENPKKYIPGTKMIFAGIKKKTEREDLIAYLKKATNE'
p51
sS'hit-to'
p52
I104
stp53
a(F100.0
F100.0
(dp54
g23
F100.0
sg24
I0
sg25
I1
sg26
g11
sg27
I0
sg28
I1
sg29
I104
sg30
I104
sg31
g32
sg33
I104
sg34
S'Chain B, Electron Transfer Complex Between Horse Heart Cytochrome C And Zinc- Porphyrin Substituted Cytochrome C Peroxidase'
p55
sg36
F100.0
sg37
I104
sg38
F9.61061e-72
sg39
g40
sg41
I0
sg42
S'1u75'
p56
sg44
F212.616
sg45
F540.0
sg46
I104
sg47
F100.0
sg48
g49
sg50
g51
sg52
I104
stp57
a(F100.0
F100.0
(dp58
g23
F100.0
sg24
I0
sg25
I1
sg26
g11
sg27
I0
sg28
I1
sg29
I104
sg30
I104
sg31
g32
sg33
I104
sg34
S'Chain A, Solution Structure Of Oxidized Horse Heart Cytochrome C, Nmr, Minimized Average Structure'
p59
sg36
F100.0
sg37
I104
sg38
F9.61061e-72
sg39
S'A'
p60
sg41
I0
sg42
S'1akk'
p61
sg44
F212.616
sg45
F540.0
sg46
I104
sg47
F100.0
sg48
g49
sg50
g51
sg52
I104
stp62
a(F100.0
F100.0
(dp63
g23
F100.0
sg24
I0
sg25
I1
sg26
g11
sg27
I0
sg28
I1
sg29
I104
sg30
I104
sg31
g32
sg33
I104
sg34
S'Chain A, Solution Structure Of The Imidazole Complex Of Cytochrome C'
p64
sg36
F100.0
sg37
I104
sg38
F9.61061e-72
sg39
g60
sg41
I0
sg42
S'1fi7'
p65
sg44
F212.616
sg45
F540.0
sg46
I104
sg47
F100.0
sg48
g49
sg50
g51
sg52
I104
stp66
a(F100.0
F100.0
(dp67
g23
F100.0
sg24
I0
sg25
I1
sg26
g11
sg27
I0
sg28
I1
sg29
I104
sg30
I104
sg31
g32
sg33
I104
sg34
S'Chain A, Solution Structure Of The Imidazole Complex Of Cytochrome C'
p68
sg36
F100.0
sg37
I104
sg38
F9.61061e-72
sg39
g60
sg41
I0
sg42
S'1fi9'
p69
sg44
F212.616
sg45
F540.0
sg46
I104
sg47
F100.0
sg48
g49
sg50
g51
sg52
I104
stp70
a(F100.0
F100.0
(dp71
g23
F100.0
sg24
I0
sg25
I1
sg26
g11
sg27
I0
sg28
I1
sg29
I104
sg30
I104
sg31
g32
sg33
I104
sg34
S'Chain A, Solution Structure Of Cyanoferricytochrome C'
p72
sg36
F100.0
sg37
I104
sg38
F9.61061e-72
sg39
g60
sg41
I0
sg42
S'1i5t'
p73
sg44
F212.616
sg45
F540.0
sg46
I104
sg47
F100.0
sg48
g49
sg50
g51
sg52
I104
stp74
a(F100.0
F100.0
(dp75
g23
F100.0
sg24
I0
sg25
I1
sg26
g11
sg27
I0
sg28
I1
sg29
I104
sg30
I104
sg31
g32
sg33
I104
sg34
S'Chain A, Solution Structure Of Reduced Horse Heart Cytochrome C In 30% Acetonitrile Solution, Nmr Minimized Average Structure'
p76
sg36
F100.0
sg37
I104
sg38
F9.61061e-72
sg39
g60
sg41
I0
sg42
S'1lc1'
p77
sg44
F212.616
sg45
F540.0
sg46
I104
sg47
F100.0
sg48
g49
sg50
g51
sg52
I104
stp78
a(F100.0
F100.0
(dp79
g23
F100.0
sg24
I0
sg25
I1
sg26
g11
sg27
I0
sg28
I1
sg29
I104
sg30
I104
sg31
g32
sg33
I104
sg34
S'Chain A, Solution Structure Of Reduced Horse Heart Cytochrome C In 30% Acetonitrile Solution, Nmr 30 Structures'
p80
sg36
F100.0
sg37
I104
sg38
F9.61061e-72
sg39
g60
sg41
I0
sg42
S'1lc2'
p81
sg44
F212.616
sg45
F540.0
sg46
I104
sg47
F100.0
sg48
g49
sg50
g51
sg52
I104
stp82
a(F100.0
F100.0
(dp83
g23
F100.0
sg24
I0
sg25
I1
sg26
g11
sg27
I0
sg28
I1
sg29
I104
sg30
I104
sg31
g32
sg33
I104
sg34
S'Chain A, Solution Structure Of Zinc-Substituted Cytochrome C'
p84
sg36
F100.0
sg37
I104
sg38
F9.61061e-72
sg39
g60
sg41
I0
sg42
S'1m60'
p85
sg44
F212.616
sg45
F540.0
sg46
I104
sg47
F100.0
sg48
g49
sg50
g51
sg52
I104
stp86
a(F100.0
F100.0
(dp87
g23
F100.0
sg24
I0
sg25
I1
sg26
g11
sg27
I0
sg28
I1
sg29
I104
sg30
I104
sg31
g32
sg33
I104
sg34
S'Chain A, Cytochrome C (Oxidized) From Equus Caballus, Nmr, Minimized Average Structure'
p88
sg36
F100.0
sg37
I104
sg38
F9.61061e-72
sg39
g60
sg41
I0
sg42
S'1ocd'
p89
sg44
F212.616
sg45
F540.0
sg46
I104
sg47
F100.0
sg48
g49
sg50
g51
sg52
I104
stp90
a(F100.0
F100.0
(dp91
g23
F100.0
sg24
I0
sg25
I1
sg26
g11
sg27
I0
sg28
I1
sg29
I104
sg30
I104
sg31
g32
sg33
I104
sg34
S'Chain A, Cytochrome C (Reduced) From Equus Caballus, Nmr, Minimized Average Structure'
p92
sg36
F100.0
sg37
I104
sg38
F9.61061e-72
sg39
g60
sg41
I0
sg42
S'2frc'
p93
sg44
F212.616
sg45
F540.0
sg46
I104
sg47
F100.0
sg48
g49
sg50
g51
sg52
I104
stp94
a(F100.0
F100.0
(dp95
g23
F100.0
sg24
I0
sg25
I1
sg26
g11
sg27
I0
sg28
I1
sg29
I104
sg30
I104
sg31
g32
sg33
I104
sg34
S'Chain A, Solution Structure Of Reduced Horse Heart Cytochrome C, Nmr, 40 Structures'
p96
sg36
F100.0
sg37
I104
sg38
F9.61061e-72
sg39
g60
sg41
I0
sg42
S'2giw'
p97
sg44
F212.616
sg45
F540.0
sg46
I104
sg47
F100.0
sg48
g49
sg50
g51
sg52
I104
stp98
a(F100.0
F100.0
(dp99
g23
F100.0
sg24
I0
sg25
I1
sg26
g11
sg27
I0
sg28
I1
sg29
I104
sg30
I104
sg31
g32
sg33
I104
sg34
S'Chain A, Crystal Structure Of Dimeric Cytochrome C From Horse Heart'
p100
sg36
F100.0
sg37
I104
sg38
F9.61061e-72
sg39
g60
sg41
I0
sg42
S'3nbs'
p101
sg44
F212.616
sg45
F540.0
sg46
I104
sg47
F100.0
sg48
g49
sg50
g51
sg52
I104
stp102
a(F100.0
F100.0
(dp103
g23
F100.0
sg24
I0
sg25
I1
sg26
g11
sg27
I0
sg28
I1
sg29
I104
sg30
I104
sg31
g32
sg33
I104
sg34
S'Chain B, Crystal Structure Of Dimeric Cytochrome C From Horse Heart'
p104
sg36
F100.0
sg37
I104
sg38
F9.61061e-72
sg39
g40
sg41
I0
sg42
S'3nbs'
p105
sg44
F212.616
sg45
F540.0
sg46
I104
sg47
F100.0
sg48
g49
sg50
g51
sg52
I104
stp106
a(F100.0
F100.0
(dp107
g23
F100.0
sg24
I0
sg25
I1
sg26
g11
sg27
I0
sg28
I1
sg29
I104
sg30
I104
sg31
g32
sg33
I104
sg34
S'Chain C, Crystal Structure Of Dimeric Cytochrome C From Horse Heart'
p108
sg36
F100.0
sg37
I104
sg38
F9.61061e-72
sg39
S'C'
p109
sg41
I0
sg42
S'3nbs'
p110
sg44
F212.616
sg45
F540.0
sg46
I104
sg47
F100.0
sg48
g49
sg50
g51
sg52
I104
stp111
a(F100.0
F100.0
(dp112
g23
F100.0
sg24
I0
sg25
I1
sg26
g11
sg27
I0
sg28
I1
sg29
I104
sg30
I104
sg31
g32
sg33
I104
sg34
S'Chain D, Crystal Structure Of Dimeric Cytochrome C From Horse Heart'
p113
sg36
F100.0
sg37
I104
sg38
F9.61061e-72
sg39
S'D'
p114
sg41
I0
sg42
S'3nbs'
p115
sg44
F212.616
sg45
F540.0
sg46
I104
sg47
F100.0
sg48
g49
sg50
g51
sg52
I104
stp116
a(F100.0
F100.0
(dp117
g23
F100.0
sg24
I0
sg25
I1
sg26
g11
sg27
I0
sg28
I1
sg29
I104
sg30
I104
sg31
g32
sg33
I104
sg34
S'Chain A, Crystal Structure Of Trimeric Cytochrome C From Horse Heart'
p118
sg36
F100.0
sg37
I104
sg38
F9.61061e-72
sg39
g60
sg41
I0
sg42
S'3nbt'
p119
sg44
F212.616
sg45
F540.0
sg46
I104
sg47
F100.0
sg48
g49
sg50
g51
sg52
I104
stp120
a(F100.0
F100.0
(dp121
g23
F100.0
sg24
I0
sg25
I1
sg26
g11
sg27
I0
sg28
I1
sg29
I104
sg30
I104
sg31
g32
sg33
I104
sg34
S'Chain B, Crystal Structure Of Trimeric Cytochrome C From Horse Heart'
p122
sg36
F100.0
sg37
I104
sg38
F9.61061e-72
sg39
g40
sg41
I0
sg42
S'3nbt'
p123
sg44
F212.616
sg45
F540.0
sg46
I104
sg47
F100.0
sg48
g49
sg50
g51
sg52
I104
stp124
a(F100.0
F100.0
(dp125
g23
F100.0
sg24
I0
sg25
I1
sg26
g11
sg27
I0
sg28
I1
sg29
I104
sg30
I104
sg31
g32
sg33
I104
sg34
S'Chain C, Crystal Structure Of Trimeric Cytochrome C From Horse Heart'
p126
sg36
F100.0
sg37
I104
sg38
F9.61061e-72
sg39
g109
sg41
I0
sg42
S'3nbt'
p127
sg44
F212.616
sg45
F540.0
sg46
I104
sg47
F100.0
sg48
g49
sg50
g51
sg52
I104
stp128
a(F100.0
F100.0
(dp129
g23
F100.0
sg24
I0
sg25
I1
sg26
g11
sg27
I0
sg28
I1
sg29
I104
sg30
I104
sg31
g32
sg33
I104
sg34
S'Chain D, Crystal Structure Of Trimeric Cytochrome C From Horse Heart'
p130
sg36
F100.0
sg37
I104
sg38
F9.61061e-72
sg39
g114
sg41
I0
sg42
S'3nbt'
p131
sg44
F212.616
sg45
F540.0
sg46
I104
sg47
F100.0
sg48
g49
sg50
g51
sg52
I104
stp132
a(F100.0
F100.0
(dp133
g23
F100.0
sg24
I0
sg25
I1
sg26
g11
sg27
I0
sg28
I1
sg29
I104
sg30
I104
sg31
g32
sg33
I104
sg34
S'Chain E, Crystal Structure Of Trimeric Cytochrome C From Horse Heart'
p134
sg36
F100.0
sg37
I104
sg38
F9.61061e-72
sg39
S'E'
p135
sg41
I0
sg42
S'3nbt'
p136
sg44
F212.616
sg45
F540.0
sg46
I104
sg47
F100.0
sg48
g49
sg50
g51
sg52
I104
stp137
a(F100.0
F100.0
(dp138
g23
F100.0
sg24
I0
sg25
I1
sg26
g11
sg27
I0
sg28
I1
sg29
I104
sg30
I104
sg31
g32
sg33
I104
sg34
S'Chain F, Crystal Structure Of Trimeric Cytochrome C From Horse Heart'
p139
sg36
F100.0
sg37
I104
sg38
F9.61061e-72
sg39
g9
sg41
I0
sg42
S'3nbt'
p140
sg44
F212.616
sg45
F540.0
sg46
I104
sg47
F100.0
sg48
g49
sg50
g51
sg52
I104
stp141
a(F100.0
F100.0
(dp142
g23
F100.0
sg24
I0
sg25
I1
sg26
g11
sg27
I0
sg28
I1
sg29
I104
sg30
I104
sg31
g32
sg33
I104
sg34
S'Chain A, Dimeric Horse Cytochrome C Obtained By Refolding With Desalting Method'
p143
sg36
F100.0
sg37
I104
sg38
F9.61061e-72
sg39
g60
sg41
I0
sg42
S'3wc8'
p144
sg44
F212.616
sg45
F540.0
sg46
I104
sg47
F100.0
sg48
g49
sg50
g51
sg52
I104
stp145
a(F100.0
F100.0
(dp146
g23
F100.0
sS'query-frame'
p147
I0
sS'hit-from'
p148
I2
sS'num'
p149
g11
sS'gaps'
p150
I0
sS'query-from'
p151
I1
sS'query-to'
p152
I104
sS'identity'
p153
I104
sS'midline'
p154
S'GDVEKGKKIFVQKCAQCHTVEKGGKHKTGPNLHGLFGRKTGQAPGFTYTDANKNKGITWKEETLMEYLENPKKYIPGTKMIFAGIKKKTEREDLIAYLKKATNE'
p155
sS'align-len'
p156
I104
sg34
S'ChainA, Cytochrome C At Low Ionic Strength'
p157
sg36
F100.0
sS'positive'
p158
I104
sS'evalue'
p159
F9.91241e-72
sg39
g60
sS'hit-frame'
p160
I0
sg42
S'1crc'
p161
sS'bit-score'
p162
F212.616
sS'score'
p163
F540.0
sg46
I104
sg47
F100.0
sS'hseq'
p164
S'GDVEKGKKIFVQKCAQCHTVEKGGKHKTGPNLHGLFGRKTGQAPGFTYTDANKNKGITWKEETLMEYLENPKKYIPGTKMIFAGIKKKTEREDLIAYLKKATNE'
p165
sS'qseq'
p166
S'GDVEKGKKIFVQKCAQCHTVEKGGKHKTGPNLHGLFGRKTGQAPGFTYTDANKNKGITWKEETLMEYLENPKKYIPGTKMIFAGIKKKTEREDLIAYLKKATNE'
p167
sS'hit-to'
p168
I105
stp169
a(F100.0
F100.0
(dp170
g23
F100.0
sg147
I0
sg148
I2
sg149
g11
sg150
I0
sg151
I1
sg152
I104
sg153
I104
sg154
g155
sg156
I104
sg34
S'Chain B, Cytochrome C At Low Ionic Strength'
p171
sg36
F100.0
sg158
I104
sg159
F9.91241e-72
sg39
g40
sg160
I0
sg42
S'1crc'
p172
sg162
F212.616
sg163
F540.0
sg46
I104
sg47
F100.0
sg164
g165
sg166
g167
sg168
I105
stp173
a(F100.0
F100.0
(dp174
g23
F100.0
sg147
I0
sg148
I2
sg149
g11
sg150
I0
sg151
I1
sg152
I104
sg153
I104
sg154
g155
sg156
I104
sg34
S'Chain A, High-Resolution Three-Dimensional Structure Of Horse Heart Cytochrome C'
p175
sg36
F100.0
sg158
I104
sg159
F9.91241e-72
sg39
g60
sg160
I0
sg42
S'1hrc'
p176
sg162
F212.616
sg163
F540.0
sg46
I104
sg47
F100.0
sg164
g165
sg166
g167
sg168
I105
stp177
a(F100.0
F100.0
(dp178
g23
F100.0
sg147
I0
sg148
I2
sg149
g11
sg150
I0
sg151
I1
sg152
I104
sg153
I104
sg154
g155
sg156
I104
sg34
S'Chain A, Electron Transfer Complexes: Experimental Mapping Of The Redox- Dependent Cytochrome C Electrostatic Surface'
p179
sg36
F100.0
sg158
I104
sg159
F9.91241e-72
sg39
g60
sg160
I0
sg42
S'3o1y'
p180
sg162
F212.616
sg163
F540.0
sg46
I104
sg47
F100.0
sg164
g165
sg166
g167
sg168
I105
stp181
a(F100.0
F100.0
(dp182
g23
F100.0
sg147
I0
sg148
I2
sg149
g11
sg150
I0
sg151
I1
sg152
I104
sg153
I104
sg154
g155
sg156
I104
sg34
S'Chain B, Electron Transfer Complexes: Experimental Mapping Of The Redox- Dependent Cytochrome C Electrostatic Surface'
p183
sg36
F100.0
sg158
I104
sg159
F9.91241e-72
sg39
g40
sg160
I0
sg42
S'3o1y'
p184
sg162
F212.616
sg163
F540.0
sg46
I104
sg47
F100.0
sg164
g165
sg166
g167
sg168
I105
stp185
a(F100.0
F100.0
(dp186
g23
F100.0
sg147
I0
sg148
I2
sg149
g11
sg150
I0
sg151
I1
sg152
I104
sg153
I104
sg154
g155
sg156
I104
sg34
S'Chain C, Electron Transfer Complexes: Experimental Mapping Of The Redox- Dependent Cytochrome C Electrostatic Surface'
p187
sg36
F100.0
sg158
I104
sg159
F9.91241e-72
sg39
g109
sg160
I0
sg42
S'3o1y'
p188
sg162
F212.616
sg163
F540.0
sg46
I104
sg47
F100.0
sg164
g165
sg166
g167
sg168
I105
stp189
a(F100.0
F100.0
(dp190
g23
F100.0
sg147
I0
sg148
I2
sg149
g11
sg150
I0
sg151
I1
sg152
I104
sg153
I104
sg154
g155
sg156
I104
sg34
S'Chain A, Electron Transfer Complexes:experimental Mapping Of The Redox- Dependent Cytochrome C Electrostatic Surface'
p191
sg36
F100.0
sg158
I104
sg159
F9.91241e-72
sg39
g60
sg160
I0
sg42
S'3o20'
p192
sg162
F212.616
sg163
F540.0
sg46
I104
sg47
F100.0
sg164
g165
sg166
g167
sg168
I105
stp193
a(F100.0
F100.0
(dp194
g23
F100.0
sg147
I0
sg148
I2
sg149
g11
sg150
I0
sg151
I1
sg152
I104
sg153
I104
sg154
g155
sg156
I104
sg34
S'Chain B, Electron Transfer Complexes:experimental Mapping Of The Redox- Dependent Cytochrome C Electrostatic Surface'
p195
sg36
F100.0
sg158
I104
sg159
F9.91241e-72
sg39
g40
sg160
I0
sg42
S'3o20'
p196
sg162
F212.616
sg163
F540.0
sg46
I104
sg47
F100.0
sg164
g165
sg166
g167
sg168
I105
stp197
a(F100.0
F100.0
(dp198
g23
F100.0
sg147
I0
sg148
I2
sg149
g11
sg150
I0
sg151
I1
sg152
I104
sg153
I104
sg154
g155
sg156
I104
sg34
S'Chain C, Electron Transfer Complexes:experimental Mapping Of The Redox- Dependent Cytochrome C Electrostatic Surface'
p199
sg36
F100.0
sg158
I104
sg159
F9.91241e-72
sg39
g109
sg160
I0
sg42
S'3o20'
p200
sg162
F212.616
sg163
F540.0
sg46
I104
sg47
F100.0
sg164
g165
sg166
g167
sg168
I105
stp201
a(F100.0
F100.0
(dp202
g23
F100.0
sg147
I0
sg148
I2
sg149
g11
sg150
I0
sg151
I1
sg152
I104
sg153
I104
sg154
g155
sg156
I104
sg34
S'Chain F, Igg1 Fab Fragment (Of E8 Antibody) Complexed With Horse Cytochrome C At 1.8 A Resolution'
p203
sg36
F100.0
sg158
I104
sg159
F9.91241e-72
sg39
g9
sg160
I0
sg42
S'1wej'
p204
sg162
F212.616
sg163
F540.0
sg46
I104
sg47
F100.0
sg164
g165
sg166
g167
sg168
I105
stp205
a(F100.0
F99.03846153846153
(dp206
g23
F100.0
sS'query-frame'
p207
I0
sS'hit-from'
p208
I2
sS'num'
p209
g11
sS'gaps'
p210
I0
sS'query-from'
p211
I2
sS'query-to'
p212
I104
sS'identity'
p213
I103
sS'midline'
p214
S'DVEKGKKIFVQKCAQCHTVEKGGKHKTGPNLHGLFGRKTGQAPGFTYTDANKNKGITWKEETLMEYLENPKKYIPGTKMIFAGIKKKTEREDLIAYLKKATNE'
p215
sS'align-len'
p216
I103
sg34
S'ChainA, Solution Structure Of Reduced Horse Heart Cytochrome C, Nmr, Minimized Average Structure'
p217
sg36
F99.03846153846153
sS'positive'
p218
I103
sS'evalue'
p219
F4.82972e-71
sg39
g60
sS'hit-frame'
p220
I0
sg42
S'1giw'
p221
sS'bit-score'
p222
F210.69
sS'score'
p223
F535.0
sg46
I104
sg47
F99.03846153846153
sS'hseq'
p224
S'DVEKGKKIFVQKCAQCHTVEKGGKHKTGPNLHGLFGRKTGQAPGFTYTDANKNKGITWKEETLMEYLENPKKYIPGTKMIFAGIKKKTEREDLIAYLKKATNE'
p225
sS'qseq'
p226
S'DVEKGKKIFVQKCAQCHTVEKGGKHKTGPNLHGLFGRKTGQAPGFTYTDANKNKGITWKEETLMEYLENPKKYIPGTKMIFAGIKKKTEREDLIAYLKKATNE'
p227
sS'hit-to'
p228
I104
stp229
a(F97.11538461538461
F100.0
(dp230
g23
F97.11538461538461
sS'query-frame'
p231
I0
sS'hit-from'
p232
I1
sS'num'
p233
g11
sS'gaps'
p234
I0
sS'query-from'
p235
I1
sS'query-to'
p236
I104
sS'identity'
p237
I101
sS'midline'
p238
S'GDVEKGKKIFVQKCAQCHTVEKGGKHKTGPNLHGLFGRKTGQAPGF+YTDANKNKGITW EETLMEYLENPKKYIPGTKMIFAGIKKK EREDLIAYLKKATNE'
p239
sS'align-len'
p240
I104
sg34
S'ChainA, Crystal Structure Of Cytochrome C From Bovine Heart At 1.5 A Resolution.'
p241
sg36
F100.0
sS'positive'
p242
I102
sS'evalue'
p243
F1.86554e-69
sg39
g60
sS'hit-frame'
p244
I0
sg42
S'2b4z'
p245
sS'bit-score'
p246
F206.838
sS'score'
p247
F525.0
sg46
I104
sg47
F100.0
sS'hseq'
p248
S'GDVEKGKKIFVQKCAQCHTVEKGGKHKTGPNLHGLFGRKTGQAPGFSYTDANKNKGITWGEETLMEYLENPKKYIPGTKMIFAGIKKKGEREDLIAYLKKATNE'
p249
sS'qseq'
p250
S'GDVEKGKKIFVQKCAQCHTVEKGGKHKTGPNLHGLFGRKTGQAPGFTYTDANKNKGITWKEETLMEYLENPKKYIPGTKMIFAGIKKKTEREDLIAYLKKATNE'
p251
sS'hit-to'
p252
I104
stp253
a(F97.11538461538461
F100.0
(dp254
g23
F97.11538461538461
sg231
I0
sg232
I1
sg233
g11
sg234
I0
sg235
I1
sg236
I104
sg237
I101
sg238
g239
sg240
I104
sg34
S'Chain Y, Fitted Model For Bovine  Mitochondrial Supercomplex I1iii2iv1 By Single Particle Cryo-Em (Emd-1876)'
p255
sg36
F100.0
sg242
I102
sg243
F1.86554e-69
sg39
S'Y'
p256
sg244
I0
sg42
S'2ybb'
p257
sg246
F206.838
sg247
F525.0
sg46
I104
sg47
F100.0
sg248
g249
sg250
g251
sg252
I104
stp258
a(F97.11538461538461
F100.0
(dp259
g23
F97.11538461538461
sg231
I0
sg232
I1
sg233
g11
sg234
I0
sg235
I1
sg236
I104
sg237
I101
sg238
g239
sg240
I104
sg34
S'Chain H, An Improved Model Of The Human Apoptosome'
p260
sg36
F100.0
sg242
I102
sg243
F1.86554e-69
sg39
S'H'
p261
sg244
I0
sg42
S'3j2t'
p262
sg246
F206.838
sg247
F525.0
sg46
I104
sg47
F100.0
sg248
g249
sg250
g251
sg252
I104
stp263
a(F97.11538461538461
F100.0
(dp264
g23
F97.11538461538461
sg231
I0
sg232
I1
sg233
g11
sg234
I0
sg235
I1
sg236
I104
sg237
I101
sg238
g239
sg240
I104
sg34
S'Chain I, An Improved Model Of The Human Apoptosome'
p265
sg36
F100.0
sg242
I102
sg243
F1.86554e-69
sg39
S'I'
p266
sg244
I0
sg42
S'3j2t'
p267
sg246
F206.838
sg247
F525.0
sg46
I104
sg47
F100.0
sg248
g249
sg250
g251
sg252
I104
stp268
a(F97.11538461538461
F100.0
(dp269
g23
F97.11538461538461
sg231
I0
sg232
I1
sg233
g11
sg234
I0
sg235
I1
sg236
I104
sg237
I101
sg238
g239
sg240
I104
sg34
S'Chain J, An Improved Model Of The Human Apoptosome'
p270
sg36
F100.0
sg242
I102
sg243
F1.86554e-69
sg39
S'J'
p271
sg244
I0
sg42
S'3j2t'
p272
sg246
F206.838
sg247
F525.0
sg46
I104
sg47
F100.0
sg248
g249
sg250
g251
sg252
I104
stp273
a(F97.11538461538461
F100.0
(dp274
g23
F97.11538461538461
sg231
I0
sg232
I1
sg233
g11
sg234
I0
sg235
I1
sg236
I104
sg237
I101
sg238
g239
sg240
I104
sg34
S'Chain K, An Improved Model Of The Human Apoptosome'
p275
sg36
F100.0
sg242
I102
sg243
F1.86554e-69
sg39
S'K'
p276
sg244
I0
sg42
S'3j2t'
p277
sg246
F206.838
sg247
F525.0
sg46
I104
sg47
F100.0
sg248
g249
sg250
g251
sg252
I104
stp278
a(F97.11538461538461
F100.0
(dp279
g23
F97.11538461538461
sg231
I0
sg232
I1
sg233
g11
sg234
I0
sg235
I1
sg236
I104
sg237
I101
sg238
g239
sg240
I104
sg34
S'Chain L, An Improved Model Of The Human Apoptosome'
p280
sg36
F100.0
sg242
I102
sg243
F1.86554e-69
sg39
S'L'
p281
sg244
I0
sg42
S'3j2t'
p282
sg246
F206.838
sg247
F525.0
sg46
I104
sg47
F100.0
sg248
g249
sg250
g251
sg252
I104
stp283
a(F97.11538461538461
F100.0
(dp284
g23
F97.11538461538461
sg231
I0
sg232
I1
sg233
g11
sg234
I0
sg235
I1
sg236
I104
sg237
I101
sg238
g239
sg240
I104
sg34
S'Chain M, An Improved Model Of The Human Apoptosome'
p285
sg36
F100.0
sg242
I102
sg243
F1.86554e-69
sg39
S'M'
p286
sg244
I0
sg42
S'3j2t'
p287
sg246
F206.838
sg247
F525.0
sg46
I104
sg47
F100.0
sg248
g249
sg250
g251
sg252
I104
stp288
a(F97.11538461538461
F100.0
(dp289
g23
F97.11538461538461
sg231
I0
sg232
I1
sg233
g11
sg234
I0
sg235
I1
sg236
I104
sg237
I101
sg238
g239
sg240
I104
sg34
S'Chain N, An Improved Model Of The Human Apoptosome'
p290
sg36
F100.0
sg242
I102
sg243
F1.86554e-69
sg39
S'N'
p291
sg244
I0
sg42
S'3j2t'
p292
sg246
F206.838
sg247
F525.0
sg46
I104
sg47
F100.0
sg248
g249
sg250
g251
sg252
I104
stp293
a(F89.42307692307692
F100.0
(dp294
g23
F89.42307692307692
sS'query-frame'
p295
I0
sS'hit-from'
p296
I1
sS'num'
p297
g11
sS'gaps'
p298
I0
sS'query-from'
p299
I1
sS'query-to'
p300
I104
sS'identity'
p301
I93
sS'midline'
p302
S'GDVEKGKKIF+ KC+QCHTVEKGGKHKTGPNLHGLFGRKTGQAPGF+YT ANKNKGI W E+TLMEYLENPKKYIPGTKMIF GIKKK ER DLIAYLKKATNE'
p303
sS'align-len'
p304
I104
sg34
S'ChainA, Structure Of The Y46f Mutant Of Human Cytochrome C'
p305
sg36
F100.0
sS'positive'
p306
I97
sS'evalue'
p307
F1.80548e-64
sg39
g60
sS'hit-frame'
p308
I0
sg42
S'3zoo'
p309
sS'bit-score'
p310
F194.126
sS'score'
p311
F492.0
sg46
I104
sg47
F100.0
sS'hseq'
p312
S'GDVEKGKKIFIMKCSQCHTVEKGGKHKTGPNLHGLFGRKTGQAPGFSYTAANKNKGIIWGEDTLMEYLENPKKYIPGTKMIFVGIKKKEERADLIAYLKKATNE'
p313
sS'qseq'
p314
S'GDVEKGKKIFVQKCAQCHTVEKGGKHKTGPNLHGLFGRKTGQAPGFTYTDANKNKGITWKEETLMEYLENPKKYIPGTKMIFAGIKKKTEREDLIAYLKKATNE'
p315
sS'hit-to'
p316
I104
stp317
a(F89.42307692307692
F100.0
(dp318
g23
F89.42307692307692
sg295
I0
sg296
I1
sg297
g11
sg298
I0
sg299
I1
sg300
I104
sg301
I93
sg302
g303
sg304
I104
sg34
S'Chain B, Structure Of The Y46f Mutant Of Human Cytochrome C'
p319
sg36
F100.0
sg306
I97
sg307
F1.80548e-64
sg39
g40
sg308
I0
sg42
S'3zoo'
p320
sg310
F194.126
sg311
F492.0
sg46
I104
sg47
F100.0
sg312
g313
sg314
g315
sg316
I104
stp321
a(F89.42307692307692
F100.0
(dp322
g23
F89.42307692307692
sg295
I0
sg296
I1
sg297
g11
sg298
I0
sg299
I1
sg300
I104
sg301
I93
sg302
g303
sg304
I104
sg34
S'Chain C, Structure Of The Y46f Mutant Of Human Cytochrome C'
p323
sg36
F100.0
sg306
I97
sg307
F1.80548e-64
sg39
g109
sg308
I0
sg42
S'3zoo'
p324
sg310
F194.126
sg311
F492.0
sg46
I104
sg47
F100.0
sg312
g313
sg314
g315
sg316
I104
stp325
a(F89.42307692307692
F100.0
(dp326
g23
F89.42307692307692
sg295
I0
sg296
I1
sg297
g11
sg298
I0
sg299
I1
sg300
I104
sg301
I93
sg302
g303
sg304
I104
sg34
S'Chain D, Structure Of The Y46f Mutant Of Human Cytochrome C'
p327
sg36
F100.0
sg306
I97
sg307
F1.80548e-64
sg39
g114
sg308
I0
sg42
S'3zoo'
p328
sg310
F194.126
sg311
F492.0
sg46
I104
sg47
F100.0
sg312
g313
sg314
g315
sg316
I104
stp329
a(F89.32038834951456
F99.03846153846153
(dp330
g23
F89.32038834951456
sS'query-frame'
p331
I0
sS'hit-from'
p332
I2
sS'num'
p333
g11
sS'gaps'
p334
I0
sS'query-from'
p335
I1
sS'query-to'
p336
I103
sS'identity'
p337
I92
sS'midline'
p338
S'GD E GKKIFVQKCAQCHTVEKGGKHKTGPNL GLFGRKTGQAPGF+YTDANKNKG+ W EETLMEYLENPKKYIPGTKMIFAGIKKK+EREDLI YLK+AT+'
p339
sS'align-len'
p340
I103
sg34
S'ChainA, Crystal Structure Of Mouse Testicular Cytochrome C At 1.6 Angstrom'
p341
sg36
F99.03846153846153
sS'positive'
p342
I97
sS'evalue'
p343
F1.51325e-64
sg39
g60
sS'hit-frame'
p344
I0
sg42
S'2aiu'
p345
sS'bit-score'
p346
F194.512
sS'score'
p347
F493.0
sg46
I104
sg47
F99.03846153846153
sS'hseq'
p348
S'GDAEAGKKIFVQKCAQCHTVEKGGKHKTGPNLWGLFGRKTGQAPGFSYTDANKNKGVIWSEETLMEYLENPKKYIPGTKMIFAGIKKKSEREDLIKYLKQATS'
p349
sS'qseq'
p350
S'GDVEKGKKIFVQKCAQCHTVEKGGKHKTGPNLHGLFGRKTGQAPGFTYTDANKNKGITWKEETLMEYLENPKKYIPGTKMIFAGIKKKTEREDLIAYLKKATN'
p351
sS'hit-to'
p352
I104
stp353
a(F88.46153846153847
F100.0
(dp354
g23
F88.46153846153847
sS'query-frame'
p355
I0
sS'hit-from'
p356
I1
sS'num'
p357
g11
sS'gaps'
p358
I0
sS'query-from'
p359
I1
sS'query-to'
p360
I104
sS'identity'
p361
I92
sS'midline'
p362
S'GDVEKGKKIF+ KC+QCHTVEKGGKHKTGPNLHGLFGRKTGQAPG++YT ANKNKGI W E+TLMEYLENPKKYIPGTKMIF GIKKK ER DLIAYLKKATNE'
p363
sS'align-len'
p364
I104
sg34
S'ChainA, Solution Structure Of Reduced Recombinant Human Cytochrome C'
p365
sg36
F100.0
sS'positive'
p366
I97
sS'evalue'
p367
F5.79448e-64
sg39
g60
sS'hit-frame'
p368
I0
sg42
S'1j3s'
p369
sS'bit-score'
p370
F192.971
sS'score'
p371
F489.0
sg46
I104
sg47
F100.0
sS'hseq'
p372
S'GDVEKGKKIFIMKCSQCHTVEKGGKHKTGPNLHGLFGRKTGQAPGYSYTAANKNKGIIWGEDTLMEYLENPKKYIPGTKMIFVGIKKKEERADLIAYLKKATNE'
p373
sS'qseq'
p374
S'GDVEKGKKIFVQKCAQCHTVEKGGKHKTGPNLHGLFGRKTGQAPGFTYTDANKNKGITWKEETLMEYLENPKKYIPGTKMIFAGIKKKTEREDLIAYLKKATNE'
p375
sS'hit-to'
p376
I104
stp377
a(F88.46153846153847
F100.0
(dp378
g23
F88.46153846153847
sg355
I0
sg356
I1
sg357
g11
sg358
I0
sg359
I1
sg360
I104
sg361
I92
sg362
g363
sg364
I104
sg34
S'Chain A, Structure Of Recombinant Human Cytochrome C'
p379
sg36
F100.0
sg366
I97
sg367
F5.79448e-64
sg39
g60
sg368
I0
sg42
S'3zcf'
p380
sg370
F192.971
sg371
F489.0
sg46
I104
sg47
F100.0
sg372
g373
sg374
g375
sg376
I104
stp381
a(F88.46153846153847
F100.0
(dp382
g23
F88.46153846153847
sg355
I0
sg356
I1
sg357
g11
sg358
I0
sg359
I1
sg360
I104
sg361
I92
sg362
g363
sg364
I104
sg34
S'Chain B, Structure Of Recombinant Human Cytochrome C'
p383
sg36
F100.0
sg366
I97
sg367
F5.79448e-64
sg39
g40
sg368
I0
sg42
S'3zcf'
p384
sg370
F192.971
sg371
F489.0
sg46
I104
sg47
F100.0
sg372
g373
sg374
g375
sg376
I104
stp385
a(F88.46153846153847
F100.0
(dp386
g23
F88.46153846153847
sg355
I0
sg356
I1
sg357
g11
sg358
I0
sg359
I1
sg360
I104
sg361
I92
sg362
g363
sg364
I104
sg34
S'Chain C, Structure Of Recombinant Human Cytochrome C'
p387
sg36
F100.0
sg366
I97
sg367
F5.79448e-64
sg39
g109
sg368
I0
sg42
S'3zcf'
p388
sg370
F192.971
sg371
F489.0
sg46
I104
sg47
F100.0
sg372
g373
sg374
g375
sg376
I104
stp389
a(F88.46153846153847
F100.0
(dp390
g23
F88.46153846153847
sg355
I0
sg356
I1
sg357
g11
sg358
I0
sg359
I1
sg360
I104
sg361
I92
sg362
g363
sg364
I104
sg34
S'Chain D, Structure Of Recombinant Human Cytochrome C'
p391
sg36
F100.0
sg366
I97
sg367
F5.79448e-64
sg39
g114
sg368
I0
sg42
S'3zcf'
p392
sg370
F192.971
sg371
F489.0
sg46
I104
sg47
F100.0
sg372
g373
sg374
g375
sg376
I104
stp393
a(F87.5
F100.0
(dp394
g23
F87.5
sS'query-frame'
p395
I0
sS'hit-from'
p396
I1
sS'num'
p397
g11
sS'gaps'
p398
I0
sS'query-from'
p399
I1
sS'query-to'
p400
I104
sS'identity'
p401
I91
sS'midline'
p402
S'GDVEKGKKIF+ KC+QCHTVEKGGKHKTGPNLHGLFGRKT QAPG++YT ANKNKGI W E+TLMEYLENPKKYIPGTKMIF GIKKK ER DLIAYLKKATNE'
p403
sS'align-len'
p404
I104
sg34
S'ChainA, Human Cytochrome C G41s'
p405
sg36
F100.0
sS'positive'
p406
I96
sS'evalue'
p407
F2.69336e-63
sg39
g60
sS'hit-frame'
p408
I0
sg42
S'3nwv'
p409
sS'bit-score'
p410
F191.045
sS'score'
p411
F484.0
sg46
I104
sg47
F100.0
sS'hseq'
p412
S'GDVEKGKKIFIMKCSQCHTVEKGGKHKTGPNLHGLFGRKTSQAPGYSYTAANKNKGIIWGEDTLMEYLENPKKYIPGTKMIFVGIKKKEERADLIAYLKKATNE'
p413
sS'qseq'
p414
S'GDVEKGKKIFVQKCAQCHTVEKGGKHKTGPNLHGLFGRKTGQAPGFTYTDANKNKGITWKEETLMEYLENPKKYIPGTKMIFAGIKKKTEREDLIAYLKKATNE'
p415
sS'hit-to'
p416
I104
stp417
a(F87.5
F100.0
(dp418
g23
F87.5
sg395
I0
sg396
I1
sg397
g11
sg398
I0
sg399
I1
sg400
I104
sg401
I91
sg402
g403
sg404
I104
sg34
S'Chain B, Human Cytochrome C G41s'
p419
sg36
F100.0
sg406
I96
sg407
F2.69336e-63
sg39
g40
sg408
I0
sg42
S'3nwv'
p420
sg410
F191.045
sg411
F484.0
sg46
I104
sg47
F100.0
sg412
g413
sg414
g415
sg416
I104
stp421
a(F87.5
F100.0
(dp422
g23
F87.5
sg395
I0
sg396
I1
sg397
g11
sg398
I0
sg399
I1
sg400
I104
sg401
I91
sg402
g403
sg404
I104
sg34
S'Chain C, Human Cytochrome C G41s'
p423
sg36
F100.0
sg406
I96
sg407
F2.69336e-63
sg39
g109
sg408
I0
sg42
S'3nwv'
p424
sg410
F191.045
sg411
F484.0
sg46
I104
sg47
F100.0
sg412
g413
sg414
g415
sg416
I104
stp425
a(F87.5
F100.0
(dp426
g23
F87.5
sg395
I0
sg396
I1
sg397
g11
sg398
I0
sg399
I1
sg400
I104
sg401
I91
sg402
g403
sg404
I104
sg34
S'Chain D, Human Cytochrome C G41s'
p427
sg36
F100.0
sg406
I96
sg407
F2.69336e-63
sg39
g114
sg408
I0
sg42
S'3nwv'
p428
sg410
F191.045
sg411
F484.0
sg46
I104
sg47
F100.0
sg412
g413
sg414
g415
sg416
I104
stp429
a(F84.61538461538461
F12.5
(dp430
g23
F84.61538461538461
sS'query-frame'
p431
I0
sS'hit-from'
p432
I4
sS'num'
p433
g11
sS'gaps'
p434
I0
sS'query-from'
p435
I90
sS'query-to'
p436
I102
sS'identity'
p437
I11
sS'midline'
p438
S'ER DLIAYLK+AT'
p439
sS'align-len'
p440
I13
sg34
S'ChainD, Crystal Structure Of The 2b4 Tcr In Complex With MccI-Ek'
p441
sg36
F12.5
sS'positive'
p442
I12
sS'evalue'
p443
F5.40784
sg39
g114
sS'hit-frame'
p444
I0
sg42
S'3qib'
p445
sS'bit-score'
p446
F26.1794
sS'score'
p447
F56.0
sg46
I104
sg47
F12.5
sS'hseq'
p448
S'ERADLIAYLKQAT'
p449
sS'qseq'
p450
S'EREDLIAYLKKAT'
p451
sS'hit-to'
p452
I16
stp453
a(F83.49514563106796
F99.03846153846153
(dp454
g23
F83.49514563106796
sS'query-frame'
p455
I0
sS'hit-from'
p456
I1
sS'num'
p457
g11
sS'gaps'
p458
I0
sS'query-from'
p459
I1
sS'query-to'
p460
I103
sS'identity'
p461
I86
sS'midline'
p462
S'GDV KGKK FVQKCAQCHTVE GGKHK GPNL GLFGRKTGQA G++YTDANK+KGI W E TLMEYLENPKKYIPGTKMIFAGIKKK ER+DL+AYLK AT+'
p463
sS'align-len'
p464
I103
sg34
S'ChainA, The Crystal Structure Of Bonito (Katsuo) Ferrocytochrome C At 2.3 Angstroms Resolution. Ii. Structure And Function'
p465
sg36
F99.03846153846153
sS'positive'
p466
I92
sS'evalue'
p467
F1.7363e-59
sg39
g60
sS'hit-frame'
p468
I0
sg42
S'1cyc'
p469
sS'bit-score'
p470
F181.415
sS'score'
p471
F459.0
sg46
I104
sg47
F99.03846153846153
sS'hseq'
p472
S'GDVAKGKKTFVQKCAQCHTVENGGKHKVGPNLWGLFGRKTGQAEGYSYTDANKSKGIVWNENTLMEYLENPKKYIPGTKMIFAGIKKKGERQDLVAYLKSATS'
p473
sS'qseq'
p474
S'GDVEKGKKIFVQKCAQCHTVEKGGKHKTGPNLHGLFGRKTGQAPGFTYTDANKNKGITWKEETLMEYLENPKKYIPGTKMIFAGIKKKTEREDLIAYLKKATN'
p475
sS'hit-to'
p476
I103
stp477
a(F83.49514563106796
F99.03846153846153
(dp478
g23
F83.49514563106796
sg455
I0
sg456
I1
sg457
g11
sg458
I0
sg459
I1
sg460
I103
sg461
I86
sg462
g463
sg464
I103
sg34
S'Chain B, The Crystal Structure Of Bonito (Katsuo) Ferrocytochrome C At 2.3 Angstroms Resolution. Ii. Structure And Function'
p479
sg36
F99.03846153846153
sg466
I92
sg467
F1.7363e-59
sg39
g40
sg468
I0
sg42
S'1cyc'
p480
sg470
F181.415
sg471
F459.0
sg46
I104
sg47
F99.03846153846153
sg472
g473
sg474
g475
sg476
I103
stp481
a(F82.52427184466019
F99.03846153846153
(dp482
g23
F82.52427184466019
sS'query-frame'
p483
I0
sS'hit-from'
p484
I1
sS'num'
p485
g11
sS'gaps'
p486
I0
sS'query-from'
p487
I1
sS'query-to'
p488
I103
sS'identity'
p489
I85
sS'midline'
p490
S'GDV KGKK FVQKCAQCHTVE GGKHK GPNL GLFGRKTGQA G++YTDANK+KGI W  +TLMEYLENPKKYIPGTKMIFAGIKKK ER+DL+AYLK AT+'
p491
sS'align-len'
p492
I103
sg34
S'ChainA, Cytochrome C (Tuna) 2fe:1zn Mixed-Metal Porphyrins'
p493
sg36
F99.03846153846153
sS'positive'
p494
I92
sS'evalue'
p495
F4.83232e-59
sg39
g60
sS'hit-frame'
p496
I0
sg42
S'1i54'
p497
sS'bit-score'
p498
F180.259
sS'score'
p499
F456.0
sg46
I104
sg47
F99.03846153846153
sS'hseq'
p500
S'GDVAKGKKTFVQKCAQCHTVENGGKHKVGPNLWGLFGRKTGQAEGYSYTDANKSKGIVWNNDTLMEYLENPKKYIPGTKMIFAGIKKKGERQDLVAYLKSATS'
p501
sS'qseq'
p502
S'GDVEKGKKIFVQKCAQCHTVEKGGKHKTGPNLHGLFGRKTGQAPGFTYTDANKNKGITWKEETLMEYLENPKKYIPGTKMIFAGIKKKTEREDLIAYLKKATN'
p503
sS'hit-to'
p504
I103
stp505
a(F82.52427184466019
F99.03846153846153
(dp506
g23
F82.52427184466019
sg483
I0
sg484
I1
sg485
g11
sg486
I0
sg487
I1
sg488
I103
sg489
I85
sg490
g491
sg492
I103
sg34
S'Chain B, Cytochrome C (Tuna) 2fe:1zn Mixed-Metal Porphyrins'
p507
sg36
F99.03846153846153
sg494
I92
sg495
F4.83232e-59
sg39
g40
sg496
I0
sg42
S'1i54'
p508
sg498
F180.259
sg499
F456.0
sg46
I104
sg47
F99.03846153846153
sg500
g501
sg502
g503
sg504
I103
stp509
a(F82.52427184466019
F99.03846153846153
(dp510
g23
F82.52427184466019
sg483
I0
sg484
I1
sg485
g11
sg486
I0
sg487
I1
sg488
I103
sg489
I85
sg490
g491
sg492
I103
sg34
S'Chain A, Cytochrome C (Tuna) With 2zn:1fe Mixed-Metal Porphyrins'
p511
sg36
F99.03846153846153
sg494
I92
sg495
F4.83232e-59
sg39
g60
sg496
I0
sg42
S'1i55'
p512
sg498
F180.259
sg499
F456.0
sg46
I104
sg47
F99.03846153846153
sg500
g501
sg502
g503
sg504
I103
stp513
a(F82.52427184466019
F99.03846153846153
(dp514
g23
F82.52427184466019
sg483
I0
sg484
I1
sg485
g11
sg486
I0
sg487
I1
sg488
I103
sg489
I85
sg490
g491
sg492
I103
sg34
S'Chain B, Cytochrome C (Tuna) With 2zn:1fe Mixed-Metal Porphyrins'
p515
sg36
F99.03846153846153
sg494
I92
sg495
F4.83232e-59
sg39
g40
sg496
I0
sg42
S'1i55'
p516
sg498
F180.259
sg499
F456.0
sg46
I104
sg47
F99.03846153846153
sg500
g501
sg502
g503
sg504
I103
stp517
a(F82.52427184466019
F99.03846153846153
(dp518
g23
F82.52427184466019
sg483
I0
sg484
I1
sg485
g11
sg486
I0
sg487
I1
sg488
I103
sg489
I85
sg490
g491
sg492
I103
sg34
S'Chain A, Crystal Structure Of Cobalt(Iii)-Substituted Cytochrome C (Tuna)'
p519
sg36
F99.03846153846153
sg494
I92
sg495
F4.83232e-59
sg39
g60
sg496
I0
sg42
S'1lfm'
p520
sg498
F180.259
sg499
F456.0
sg46
I104
sg47
F99.03846153846153
sg500
g501
sg502
g503
sg504
I103
stp521
a(F82.52427184466019
F99.03846153846153
(dp522
g23
F82.52427184466019
sg483
I0
sg484
I1
sg485
g11
sg486
I0
sg487
I1
sg488
I103
sg489
I85
sg490
g491
sg492
I103
sg34
S'Chain B, Crystal Structure Of Cobalt(Iii)-Substituted Cytochrome C (Tuna)'
p523
sg36
F99.03846153846153
sg494
I92
sg495
F4.83232e-59
sg39
g40
sg496
I0
sg42
S'1lfm'
p524
sg498
F180.259
sg499
F456.0
sg46
I104
sg47
F99.03846153846153
sg500
g501
sg502
g503
sg504
I103
stp525
a(F82.52427184466019
F99.03846153846153
(dp526
g23
F82.52427184466019
sS'query-frame'
p527
I0
sS'hit-from'
p528
I2
sS'num'
p529
g11
sS'gaps'
p530
I0
sS'query-from'
p531
I1
sS'query-to'
p532
I103
sS'identity'
p533
I85
sS'midline'
p534
S'GDV KGKK FVQKCAQCHTVE GGKHK GPNL GLFGRKTGQA G++YTDANK+KGI W  +TLMEYLENPKKYIPGTKMIFAGIKKK ER+DL+AYLK AT+'
p535
sS'align-len'
p536
I103
sg34
S'ChainO, Redox Conformation Changes In Refined Tuna Cytochrome C'
p537
sg36
F99.03846153846153
sS'positive'
p538
I92
sS'evalue'
p539
F4.97993e-59
sg39
S'O'
p540
sS'hit-frame'
p541
I0
sg42
S'3cyt'
p542
sS'bit-score'
p543
F180.259
sS'score'
p544
F456.0
sg46
I104
sg47
F99.03846153846153
sS'hseq'
p545
S'GDVAKGKKTFVQKCAQCHTVENGGKHKVGPNLWGLFGRKTGQAEGYSYTDANKSKGIVWNNDTLMEYLENPKKYIPGTKMIFAGIKKKGERQDLVAYLKSATS'
p546
sS'qseq'
p547
S'GDVEKGKKIFVQKCAQCHTVEKGGKHKTGPNLHGLFGRKTGQAPGFTYTDANKNKGITWKEETLMEYLENPKKYIPGTKMIFAGIKKKTEREDLIAYLKKATN'
p548
sS'hit-to'
p549
I104
stp550
a(F82.52427184466019
F99.03846153846153
(dp551
g23
F82.52427184466019
sg527
I0
sg528
I2
sg529
g11
sg530
I0
sg531
I1
sg532
I103
sg533
I85
sg534
g535
sg536
I103
sg34
S'Chain I, Redox Conformation Changes In Refined Tuna Cytochrome C'
p552
sg36
F99.03846153846153
sg538
I92
sg539
F4.97993e-59
sg39
g266
sg541
I0
sg42
S'3cyt'
p553
sg543
F180.259
sg544
F456.0
sg46
I104
sg47
F99.03846153846153
sg545
g546
sg547
g548
sg549
I104
stp554
a(F82.52427184466019
F99.03846153846153
(dp555
g23
F82.52427184466019
sg527
I0
sg528
I2
sg529
g11
sg530
I0
sg531
I1
sg532
I103
sg533
I85
sg534
g535
sg536
I103
sg34
S'Chain R, Refinement Of Myoglobin And Cytochrome C'
p556
sg36
F99.03846153846153
sg538
I92
sg539
F4.97993e-59
sg39
S'R'
p557
sg541
I0
sg42
S'5cyt'
p558
sg543
F180.259
sg544
F456.0
sg46
I104
sg47
F99.03846153846153
sg545
g546
sg547
g548
sg549
I104
stp559
a(F63.72549019607843
F98.07692307692308
(dp560
g23
F63.72549019607843
sS'query-frame'
p561
I0
sS'hit-from'
p562
I6
sS'num'
p563
g11
sS'gaps'
p564
I0
sS'query-from'
p565
I1
sS'query-to'
p566
I102
sS'identity'
p567
I65
sS'midline'
p568
S'G  +KG  +F  +C QCHTVEKGG HK GPNLHG+FGR +GQA G++YTDAN  K + W E  + EYL NPKKYIPGTKM F G+KK+ +R DLI YLKKAT'
p569
sS'align-len'
p570
I102
sg34
S'ChainB, Structure Of A Cytochrome C Peroxidase-Cytochrome C Site Specific Cross-Link'
p571
sg36
F98.07692307692308
sS'positive'
p572
I77
sS'evalue'
p573
F1.09e-44
sg39
g40
sS'hit-frame'
p574
I0
sg42
S'1s6v'
p575
sS'bit-score'
p576
F144.05
sS'score'
p577
F362.0
sg46
I104
sg47
F98.07692307692308
sS'hseq'
p578
S'GSAKKGATLFKTRCLQCHTVEKGGPHKVGPNLHGIFGRHSGQAEGYSYTDANIKKNVLWDENNMSEYLTNPKKYIPGTKMCFGGLKKEKDRNDLITYLKKAT'
p579
sS'qseq'
p580
S'GDVEKGKKIFVQKCAQCHTVEKGGKHKTGPNLHGLFGRKTGQAPGFTYTDANKNKGITWKEETLMEYLENPKKYIPGTKMIFAGIKKKTEREDLIAYLKKAT'
p581
sS'hit-to'
p582
I107
stp583
a(F63.72549019607843
F98.07692307692308
(dp584
g23
F63.72549019607843
sg561
I0
sg562
I6
sg563
g11
sg564
I0
sg565
I1
sg566
I102
sg567
I65
sg568
g569
sg570
I102
sg34
S'Chain D, Structure Of A Cytochrome C Peroxidase-Cytochrome C Site Specific Cross-Link'
p585
sg36
F98.07692307692308
sg572
I77
sg573
F1.09e-44
sg39
g114
sg574
I0
sg42
S'1s6v'
p586
sg576
F144.05
sg577
F362.0
sg46
I104
sg47
F98.07692307692308
sg578
g579
sg580
g581
sg582
I107
stp587
a(F63.72549019607843
F98.07692307692308
(dp588
g23
F63.72549019607843
sS'query-frame'
p589
I0
sS'hit-from'
p590
I6
sS'num'
p591
g11
sS'gaps'
p592
I0
sS'query-from'
p593
I1
sS'query-to'
p594
I102
sS'identity'
p595
I65
sS'midline'
p596
S'G  +KG  +F  +C QCHTVEKGG HK GPNLHG+FGR +GQA G++YTDAN  K + W E  + EYL NPKKYIPGTKM F G+KK+ +R DLI YLKKAT'
p597
sS'align-len'
p598
I102
sg34
S'ChainA, Solution Structure Of The Imidazole Complex Of Iso-1 Cytochrome C'
p599
sg36
F98.07692307692308
sS'positive'
p600
I77
sS'evalue'
p601
F1.13833e-44
sg39
g60
sS'hit-frame'
p602
I0
sg42
S'1nmi'
p603
sS'bit-score'
p604
F143.665
sS'score'
p605
F361.0
sg46
I104
sg47
F98.07692307692308
sS'hseq'
p606
S'GSAKKGATLFKTRCLQCHTVEKGGPHKVGPNLHGIFGRHSGQAEGYSYTDANIKKNVLWDENNMSEYLTNPKKYIPGTKMAFGGLKKEKDRNDLITYLKKAT'
p607
sS'qseq'
p608
S'GDVEKGKKIFVQKCAQCHTVEKGGKHKTGPNLHGLFGRKTGQAPGFTYTDANKNKGITWKEETLMEYLENPKKYIPGTKMIFAGIKKKTEREDLIAYLKKAT'
p609
sS'hit-to'
p610
I107
stp611
a(F63.72549019607843
F98.07692307692308
(dp612
g23
F63.72549019607843
sg589
I0
sg590
I6
sg591
g11
sg592
I0
sg593
I1
sg594
I102
sg595
I65
sg596
g597
sg598
I102
sg34
S'Chain A, Nmr Solution Structure Refinement Of Yeast Iso-1- Ferrocytochrome C'
p613
sg36
F98.07692307692308
sg600
I77
sg601
F1.13833e-44
sg39
g60
sg602
I0
sg42
S'2hv4'
p614
sg604
F143.665
sg605
F361.0
sg46
I104
sg47
F98.07692307692308
sg606
g607
sg608
g609
sg610
I107
stp615
a(F63.72549019607843
F98.07692307692308
(dp616
g23
F63.72549019607843
sg589
I0
sg590
I6
sg591
g11
sg592
I0
sg593
I1
sg594
I102
sg595
I65
sg596
g597
sg598
I102
sg34
S'Chain A, Solution Structure Of The Cytochrome C- Para-Aminophenol Adduct'
p617
sg36
F98.07692307692308
sg600
I77
sg601
F1.13833e-44
sg39
g60
sg602
I0
sg42
S'2orl'
p618
sg604
F143.665
sg605
F361.0
sg46
I104
sg47
F98.07692307692308
sg606
g607
sg608
g609
sg610
I107
stp619
a(F63.72549019607843
F98.07692307692308
(dp620
g23
F63.72549019607843
sg589
I0
sg590
I6
sg591
g11
sg592
I0
sg593
I1
sg594
I102
sg595
I65
sg596
g597
sg598
I102
sg34
S'Chain A, Crystal Structure Of Cytochrome C - P-Sulfonatocalix[4]arene Complexes'
p621
sg36
F98.07692307692308
sg600
I77
sg601
F1.13833e-44
sg39
g60
sg602
I0
sg42
S'3tyi'
p622
sg604
F143.665
sg605
F361.0
sg46
I104
sg47
F98.07692307692308
sg606
g607
sg608
g609
sg610
I107
stp623
a(F63.72549019607843
F98.07692307692308
(dp624
g23
F63.72549019607843
sg589
I0
sg590
I6
sg591
g11
sg592
I0
sg593
I1
sg594
I102
sg595
I65
sg596
g597
sg598
I102
sg34
S'Chain B, Crystal Structure Of Cytochrome C - P-Sulfonatocalix[4]arene Complexes'
p625
sg36
F98.07692307692308
sg600
I77
sg601
F1.13833e-44
sg39
g40
sg602
I0
sg42
S'3tyi'
p626
sg604
F143.665
sg605
F361.0
sg46
I104
sg47
F98.07692307692308
sg606
g607
sg608
g609
sg610
I107
stp627
a(F63.72549019607843
F98.07692307692308
(dp628
g23
F63.72549019607843
sS'query-frame'
p629
I0
sS'hit-from'
p630
I6
sS'num'
p631
g11
sS'gaps'
p632
I0
sS'query-from'
p633
I1
sS'query-to'
p634
I102
sS'identity'
p635
I65
sS'midline'
p636
S'G  +KG  +F  +C QCHTVEKGG HK GPNLHG+FGR +GQA G++YTDAN  K + W E  + EYL NPKKYIPGTKM F G+KK+ +R DLI YLKKAT'
p637
sS'align-len'
p638
I102
sg34
S'ChainA, Solution Model Of Crosslinked Complex Of Cytochrome C And Adrenodoxin'
p639
sg36
F98.07692307692308
sS'positive'
p640
I77
sS'evalue'
p641
F1.70036e-44
sg39
g60
sS'hit-frame'
p642
I0
sg42
S'2jqr'
p643
sS'bit-score'
p644
F143.28
sS'score'
p645
F360.0
sg46
I104
sg47
F98.07692307692308
sS'hseq'
p646
S'GSAKKGATLFKTRCLQCHTVEKGGPHKCGPNLHGIFGRHSGQAEGYSYTDANIKKNVLWDENNMSEYLTNPKKYIPGTKMAFGGLKKEKDRNDLITYLKKAT'
p647
sS'qseq'
p648
S'GDVEKGKKIFVQKCAQCHTVEKGGKHKTGPNLHGLFGRKTGQAPGFTYTDANKNKGITWKEETLMEYLENPKKYIPGTKMIFAGIKKKTEREDLIAYLKKAT'
p649
sS'hit-to'
p650
I107
stp651
a(F63.366336633663366
F97.11538461538461
(dp652
g23
F63.366336633663366
sS'query-frame'
p653
I0
sS'hit-from'
p654
I6
sS'num'
p655
g11
sS'gaps'
p656
I0
sS'query-from'
p657
I1
sS'query-to'
p658
I101
sS'identity'
p659
I64
sS'midline'
p660
S'G  +KG  +F  +C QCHTVEKGG HK GPNLHG+FGR +GQA G++YTDAN  K + W E  + EYL NPKKYIPGTKM F G+KK+ +R DLI YLKKA'
p661
sS'align-len'
p662
I101
sg34
S'ChainB, Solution Structure Of The Yeast Iso-1-Cytochrome C (T12a) : Yeast Cytochrome C Peroxidase Complex'
p663
sg36
F97.11538461538461
sS'positive'
p664
I76
sS'evalue'
p665
F5.48494e-44
sg39
g40
sS'hit-frame'
p666
I0
sg42
S'2jti'
p667
sS'bit-score'
p668
F142.124
sS'score'
p669
F357.0
sg46
I104
sg47
F97.11538461538461
sS'hseq'
p670
S'GSAKKGATLFKARCLQCHTVEKGGPHKVGPNLHGIFGRHSGQAEGYSYTDANIKKNVLWDENNMSEYLTNPKKYIPGTKMAFGGLKKEKDRNDLITYLKKA'
p671
sS'qseq'
p672
S'GDVEKGKKIFVQKCAQCHTVEKGGKHKTGPNLHGLFGRKTGQAPGFTYTDANKNKGITWKEETLMEYLENPKKYIPGTKMIFAGIKKKTEREDLIAYLKKA'
p673
sS'hit-to'
p674
I106
stp675
a(F63.366336633663366
F97.11538461538461
(dp676
g23
F63.366336633663366
sS'query-frame'
p677
I0
sS'hit-from'
p678
I6
sS'num'
p679
g11
sS'gaps'
p680
I0
sS'query-from'
p681
I1
sS'query-to'
p682
I101
sS'identity'
p683
I64
sS'midline'
p684
S'G  +KG  +F  +C QCHTVEKGG HK GPNLHG+FGR +GQA G++YTDAN  K + W E  + EYL NPKKYIPGTKM F G+KK+ +R DLI YLKKA'
p685
sS'align-len'
p686
I101
sg34
S'ChainB, Crystal Structure Of A Complex Between Electron Transfer Partners, Cytochrome C Peroxidase And Cytochrome C'
p687
sg36
F97.11538461538461
sS'positive'
p688
I76
sS'evalue'
p689
F6.11311e-44
sg39
g40
sS'hit-frame'
p690
I0
sg42
S'2pcc'
p691
sS'bit-score'
p692
F142.124
sS'score'
p693
F357.0
sg46
I104
sg47
F97.11538461538461
sS'hseq'
p694
S'GSAKKGATLFKTRCLQCHTVEKGGPHKVGPNLHGIFGRHSGQAEGYSYTDANIKKNVLWDENNMSEYLTNPKKYIPGTKMAFGGLKKEKDRNDLITYLKKA'
p695
sS'qseq'
p696
S'GDVEKGKKIFVQKCAQCHTVEKGGKHKTGPNLHGLFGRKTGQAPGFTYTDANKNKGITWKEETLMEYLENPKKYIPGTKMIFAGIKKKTEREDLIAYLKKA'
p697
sS'hit-to'
p698
I106
stp699
a(F63.366336633663366
F97.11538461538461
(dp700
g23
F63.366336633663366
sg677
I0
sg678
I6
sg679
g11
sg680
I0
sg681
I1
sg682
I101
sg683
I64
sg684
g685
sg686
I101
sg34
S'Chain D, Crystal Structure Of A Complex Between Electron Transfer Partners, Cytochrome C Peroxidase And Cytochrome C'
p701
sg36
F97.11538461538461
sg688
I76
sg689
F6.11311e-44
sg39
g114
sg690
I0
sg42
S'2pcc'
p702
sg692
F142.124
sg693
F357.0
sg46
I104
sg47
F97.11538461538461
sg694
g695
sg696
g697
sg698
I106
stp703
a(F63.366336633663366
F97.11538461538461
(dp704
g23
F63.366336633663366
sg677
I0
sg678
I6
sg679
g11
sg680
I0
sg681
I1
sg682
I101
sg683
I64
sg684
g685
sg686
I101
sg34
S'Chain B, Solution Structure Of The Complex Between Yeast Iso-1- Cytochrome C And Yeast Cytochrome C Peroxidase'
p705
sg36
F97.11538461538461
sg688
I76
sg689
F6.11311e-44
sg39
g40
sg690
I0
sg42
S'2gb8'
p706
sg692
F142.124
sg693
F357.0
sg46
I104
sg47
F97.11538461538461
sg694
g695
sg696
g697
sg698
I106
stp707
a(F62.745098039215684
F98.07692307692308
(dp708
g23
F62.745098039215684
sS'query-frame'
p709
I0
sS'hit-from'
p710
I6
sS'num'
p711
g11
sS'gaps'
p712
I0
sS'query-from'
p713
I1
sS'query-to'
p714
I102
sS'identity'
p715
I64
sS'midline'
p716
S'G  +KG  +F  +C QCHTVEKGG HK GPNLHG+FGR +GQA G++YTDAN  K + W E  + EYL NPKKYIPGTKM F G+KK+ +R DLI YLKKA+'
p717
sS'align-len'
p718
I102
sg34
S'ChainB, Electron Transfer Complex Between Cytochrome C And Cytochrome C Peroxidase'
p719
sg36
F98.07692307692308
sS'positive'
p720
I77
sS'evalue'
p721
F2.30366e-44
sg39
g40
sS'hit-frame'
p722
I0
sg42
S'1u74'
p723
sS'bit-score'
p724
F142.895
sS'score'
p725
F359.0
sg46
I104
sg47
F98.07692307692308
sS'hseq'
p726
S'GSAKKGATLFKTRCLQCHTVEKGGPHKVGPNLHGIFGRHSGQAEGYSYTDANIKKNVLWDENNMSEYLTNPKKYIPGTKMAFGGLKKEKDRNDLITYLKKAS'
p727
sS'qseq'
p728
S'GDVEKGKKIFVQKCAQCHTVEKGGKHKTGPNLHGLFGRKTGQAPGFTYTDANKNKGITWKEETLMEYLENPKKYIPGTKMIFAGIKKKTEREDLIAYLKKAT'
p729
sS'hit-to'
p730
I107
stp731
a(F62.745098039215684
F98.07692307692308
(dp732
g23
F62.745098039215684
sg709
I0
sg710
I6
sg711
g11
sg712
I0
sg713
I1
sg714
I102
sg715
I64
sg716
g717
sg718
I102
sg34
S'Chain D, Electron Transfer Complex Between Cytochrome C And Cytochrome C Peroxidase'
p733
sg36
F98.07692307692308
sg720
I77
sg721
F2.30366e-44
sg39
g114
sg722
I0
sg42
S'1u74'
p734
sg724
F142.895
sg725
F359.0
sg46
I104
sg47
F98.07692307692308
sg726
g727
sg728
g729
sg730
I107
stp735
a(F62.745098039215684
F98.07692307692308
(dp736
g23
F62.745098039215684
sg709
I0
sg710
I6
sg711
g11
sg712
I0
sg713
I1
sg714
I102
sg715
I64
sg716
g717
sg718
I102
sg34
S'Chain B, Solvent Isotope Effects On Interfacial Protein Electron Transfer Between Cytochrome C And Cytochrome C Peroxidase'
p737
sg36
F98.07692307692308
sg720
I77
sg721
F2.30366e-44
sg39
g40
sg722
I0
sg42
S'2bcn'
p738
sg724
F142.895
sg725
F359.0
sg46
I104
sg47
F98.07692307692308
sg726
g727
sg728
g729
sg730
I107
stp739
a(F62.745098039215684
F98.07692307692308
(dp740
g23
F62.745098039215684
sS'query-frame'
p741
I0
sS'hit-from'
p742
I6
sS'num'
p743
g11
sS'gaps'
p744
I0
sS'query-from'
p745
I1
sS'query-to'
p746
I102
sS'identity'
p747
I64
sS'midline'
p748
S'G  +KG  +F  +C QCHTVEKGG HK GPNLHG+FGR +GQA G++YTDAN  K + W E  + EYL NP KYIPGTKM F G+KK+ +R DLI YLKKAT'
p749
sS'align-len'
p750
I102
sg34
S'ChainA, Oxidation State-Dependent Conformational Changes In Cytochrome C'
p751
sg36
F98.07692307692308
sS'positive'
p752
I76
sS'evalue'
p753
F4.51239e-44
sg39
g60
sS'hit-frame'
p754
I0
sg42
S'2ycc'
p755
sS'bit-score'
p756
F142.124
sS'score'
p757
F357.0
sg46
I104
sg47
F98.07692307692308
sS'hseq'
p758
S'GSAKKGATLFKTRCLQCHTVEKGGPHKVGPNLHGIFGRHSGQAEGYSYTDANIKKNVLWDENNMSEYLTNPXKYIPGTKMAFGGLKKEKDRNDLITYLKKAT'
p759
sS'qseq'
p760
S'GDVEKGKKIFVQKCAQCHTVEKGGKHKTGPNLHGLFGRKTGQAPGFTYTDANKNKGITWKEETLMEYLENPKKYIPGTKMIFAGIKKKTEREDLIAYLKKAT'
p761
sS'hit-to'
p762
I107
stp763
a(F62.745098039215684
F98.07692307692308
(dp764
g23
F62.745098039215684
sS'query-frame'
p765
I0
sS'hit-from'
p766
I6
sS'num'
p767
g11
sS'gaps'
p768
I0
sS'query-from'
p769
I1
sS'query-to'
p770
I102
sS'identity'
p771
I64
sS'midline'
p772
S'G  +KG  +F  +C QCHTVEKGG HK GPNLHG+FGR +GQA G++YTDAN  K + W E  + EYL NP KYIPGTKM F G+KK+ +R DLI YLKKAT'
p773
sS'align-len'
p774
I102
sg34
S'ChainA, Replacements In A Conserved Leucine Cluster In The Hydrophobic Heme Pocket Of Cytochrome C'
p775
sg36
F98.07692307692308
sS'positive'
p776
I76
sS'evalue'
p777
F5.19548e-44
sg39
g60
sS'hit-frame'
p778
I0
sg42
S'1csw'
p779
sS'bit-score'
p780
F142.124
sS'score'
p781
F357.0
sg46
I104
sg47
F98.07692307692308
sS'hseq'
p782
S'GSAKKGATLFKTRCLQCHTVEKGGPHKVGPNLHGIFGRHSGQAEGYSYTDANIKKNVLWDENNMSEYLTNPXKYIPGTKMAFGGMKKEKDRNDLITYLKKAT'
p783
sS'qseq'
p784
S'GDVEKGKKIFVQKCAQCHTVEKGGKHKTGPNLHGLFGRKTGQAPGFTYTDANKNKGITWKEETLMEYLENPKKYIPGTKMIFAGIKKKTEREDLIAYLKKAT'
p785
sS'hit-to'
p786
I107
stp787
a(F62.745098039215684
F98.07692307692308
(dp788
g23
F62.745098039215684
sS'query-frame'
p789
I0
sS'hit-from'
p790
I6
sS'num'
p791
g11
sS'gaps'
p792
I0
sS'query-from'
p793
I1
sS'query-to'
p794
I102
sS'identity'
p795
I64
sS'midline'
p796
S'G  +KG  +F  +C QCHTVEKGG HK GPNLHG+FGR +GQA G++YTDAN  K + W E  + EYL NP KYIPGTKM F G KK+ +R DLI YLKKAT'
p797
sS'align-len'
p798
I102
sg34
S'ChainA, Replacements In A Conserved Leucine Cluster In The Hydrophobic Heme Pocket Of Cytochrome C'
p799
sg36
F98.07692307692308
sS'positive'
p800
I75
sS'evalue'
p801
F9.9577e-44
sg39
g60
sS'hit-frame'
p802
I0
sg42
S'1csv'
p803
sS'bit-score'
p804
F141.354
sS'score'
p805
F355.0
sg46
I104
sg47
F98.07692307692308
sS'hseq'
p806
S'GSAKKGATLFKTRCLQCHTVEKGGPHKVGPNLHGIFGRHSGQAEGYSYTDANIKKNVLWDENNMSEYLTNPXKYIPGTKMAFGGFKKEKDRNDLITYLKKAT'
p807
sS'qseq'
p808
S'GDVEKGKKIFVQKCAQCHTVEKGGKHKTGPNLHGLFGRKTGQAPGFTYTDANKNKGITWKEETLMEYLENPKKYIPGTKMIFAGIKKKTEREDLIAYLKKAT'
p809
sS'hit-to'
p810
I107
stp811
a(F62.745098039215684
F98.07692307692308
(dp812
g23
F62.745098039215684
sS'query-frame'
p813
I0
sS'hit-from'
p814
I6
sS'num'
p815
g11
sS'gaps'
p816
I0
sS'query-from'
p817
I1
sS'query-to'
p818
I102
sS'identity'
p819
I64
sS'midline'
p820
S'G  +KG  +F  +C QCHTVEKGG HK GPNLHG+FGR +GQA G++YTDAN  K + W E  + EYL NP KYIPGTKM F G KK+ +R DLI YLKKAT'
p821
sS'align-len'
p822
I102
sg34
S'ChainA, Structural Studies Of The Roles Of Residues 82 And 85 At The Interactive Face Of Cytochrome C'
p823
sg36
F98.07692307692308
sS'positive'
p824
I75
sS'evalue'
p825
F1.30579e-43
sg39
g60
sS'hit-frame'
p826
I0
sg42
S'1chj'
p827
sS'bit-score'
p828
F140.969
sS'score'
p829
F354.0
sg46
I104
sg47
F98.07692307692308
sS'hseq'
p830
S'GSAKKGATLFKTRCLQCHTVEKGGPHKVGPNLHGIFGRHSGQAEGYSYTDANIKKNVLWDENNMSEYLTNPXKYIPGTKMAFGGAKKEKDRNDLITYLKKAT'
p831
sS'qseq'
p832
S'GDVEKGKKIFVQKCAQCHTVEKGGKHKTGPNLHGLFGRKTGQAPGFTYTDANKNKGITWKEETLMEYLENPKKYIPGTKMIFAGIKKKTEREDLIAYLKKAT'
p833
sS'hit-to'
p834
I107
stp835
a(F62.745098039215684
F98.07692307692308
(dp836
g23
F62.745098039215684
sS'query-frame'
p837
I0
sS'hit-from'
p838
I6
sS'num'
p839
g11
sS'gaps'
p840
I0
sS'query-from'
p841
I1
sS'query-to'
p842
I102
sS'identity'
p843
I64
sS'midline'
p844
S'G  +KG  +F  +C QCHTVEKGG HK GPNLHG+FGR +GQA G++YTDAN  K + W E  + EYL NP KYIPGTKM F G KK+ +R DLI YLKKAT'
p845
sS'align-len'
p846
I102
sg34
S'ChainA, Replacements In A Conserved Leucine Cluster In The Hydrophobic Heme Pocket Of Cytochrome C'
p847
sg36
F98.07692307692308
sS'positive'
p848
I75
sS'evalue'
p849
F1.60447e-43
sg39
g60
sS'hit-frame'
p850
I0
sg42
S'1csu'
p851
sS'bit-score'
p852
F140.969
sS'score'
p853
F354.0
sg46
I104
sg47
F98.07692307692308
sS'hseq'
p854
S'GSAKKGATLFKTRCLQCHTVEKGGPHKVGPNLHGIFGRHSGQAEGYSYTDANIKKNVLWDENNMSEYLTNPXKYIPGTKMAFGGCKKEKDRNDLITYLKKAT'
p855
sS'qseq'
p856
S'GDVEKGKKIFVQKCAQCHTVEKGGKHKTGPNLHGLFGRKTGQAPGFTYTDANKNKGITWKEETLMEYLENPKKYIPGTKMIFAGIKKKTEREDLIAYLKKAT'
p857
sS'hit-to'
p858
I107
stp859
a(F62.37623762376238
F97.11538461538461
(dp860
g23
F62.37623762376238
sS'query-frame'
p861
I0
sS'hit-from'
p862
I6
sS'num'
p863
g11
sS'gaps'
p864
I0
sS'query-from'
p865
I1
sS'query-to'
p866
I101
sS'identity'
p867
I63
sS'midline'
p868
S'G  +KG  +F  +C QCHTVEKGG HK GPNLHG+FGR +GQA G++YTDAN  K + W E  + EYL NPKKYIPGTKM + G+KK+ +R DLI YLKKA'
p869
sS'align-len'
p870
I101
sg34
S'ChainB, Crystal Structure Of The Protein-Protein Complex Between F82y Cytochrome C And Cytochrome C Peroxidase'
p871
sg36
F97.11538461538461
sS'positive'
p872
I76
sS'evalue'
p873
F1.92917e-43
sg39
g40
sS'hit-frame'
p874
I0
sg42
S'2b12'
p875
sS'bit-score'
p876
F140.584
sS'score'
p877
F353.0
sg46
I104
sg47
F97.11538461538461
sS'hseq'
p878
S'GSAKKGATLFKTRCLQCHTVEKGGPHKVGPNLHGIFGRHSGQAEGYSYTDANIKKNVLWDENNMSEYLTNPKKYIPGTKMAYGGLKKEKDRNDLITYLKKA'
p879
sS'qseq'
p880
S'GDVEKGKKIFVQKCAQCHTVEKGGKHKTGPNLHGLFGRKTGQAPGFTYTDANKNKGITWKEETLMEYLENPKKYIPGTKMIFAGIKKKTEREDLIAYLKKA'
p881
sS'hit-to'
p882
I106
stp883
a(F62.37623762376238
F97.11538461538461
(dp884
g23
F62.37623762376238
sS'query-frame'
p885
I0
sS'hit-from'
p886
I6
sS'num'
p887
g11
sS'gaps'
p888
I0
sS'query-from'
p889
I1
sS'query-to'
p890
I101
sS'identity'
p891
I63
sS'midline'
p892
S'G  +KG  +F  +C QCHTVEKGG HK GPNLHG+FGR +GQA G++YTDAN  K + W E  + EYL NP KYIPGTKM F G+KK+ +R DLI YLKKA'
p893
sS'align-len'
p894
I101
sg34
S'ChainW, Yeast Cytochrome Bc1 Complex With Bound Substrate Cytochrome C'
p895
sg36
F97.11538461538461
sS'positive'
p896
I75
sS'evalue'
p897
F2.72914e-43
sg39
S'W'
p898
sS'hit-frame'
p899
I0
sg42
S'1kyo'
p900
sS'bit-score'
p901
F140.198
sS'score'
p902
F352.0
sg46
I104
sg47
F97.11538461538461
sS'hseq'
p903
S'GSAKKGATLFKTRCLQCHTVEKGGPHKVGPNLHGIFGRHSGQAEGYSYTDANIKKNVLWDENNMSEYLTNPXKYIPGTKMAFGGLKKEKDRNDLITYLKKA'
p904
sS'qseq'
p905
S'GDVEKGKKIFVQKCAQCHTVEKGGKHKTGPNLHGLFGRKTGQAPGFTYTDANKNKGITWKEETLMEYLENPKKYIPGTKMIFAGIKKKTEREDLIAYLKKA'
p906
sS'hit-to'
p907
I106
stp908
a(F62.37623762376238
F97.11538461538461
(dp909
g23
F62.37623762376238
sg885
I0
sg886
I6
sg887
g11
sg888
I0
sg889
I1
sg890
I101
sg891
I63
sg892
g893
sg894
I101
sg34
S'Chain W, Structure Of Complex Iii With Bound Cytochrome C In Reduced State And Definition Of A Minimal Core Interface For Electron Transfer.'
p910
sg36
F97.11538461538461
sg896
I75
sg897
F2.72914e-43
sg39
g898
sg899
I0
sg42
S'3cx5'
p911
sg901
F140.198
sg902
F352.0
sg46
I104
sg47
F97.11538461538461
sg903
g904
sg905
g906
sg907
I106
stp912
a(F62.37623762376238
F97.11538461538461
(dp913
g23
F62.37623762376238
sg885
I0
sg886
I6
sg887
g11
sg888
I0
sg889
I1
sg890
I101
sg891
I63
sg892
g893
sg894
I101
sg34
S'Chain A, High-Resolution Refinement Of Yeast Iso-1-Cytochrome C And Comparisons With Other Eukaryotic Cytochromes C'
p914
sg36
F97.11538461538461
sg896
I75
sg897
F2.72914e-43
sg39
g60
sg899
I0
sg42
S'1ycc'
p915
sg901
F140.198
sg902
F352.0
sg46
I104
sg47
F97.11538461538461
sg903
g904
sg905
g906
sg907
I106
stp916
a(F62.37623762376238
F97.11538461538461
(dp917
g23
F62.37623762376238
sS'query-frame'
p918
I0
sS'hit-from'
p919
I6
sS'num'
p920
g11
sS'gaps'
p921
I0
sS'query-from'
p922
I1
sS'query-to'
p923
I101
sS'identity'
p924
I63
sS'midline'
p925
S'G  +KG  +F  +C QCHTVEKGG HK GPNLHG+FGR +GQA G++YTDAN  K + W E  + EYL NPKKYIPGTKM + G+KK+ +R DLI YLKKA'
p926
sS'align-len'
p927
I101
sg34
S'ChainB, Crystal Structure Of The Protein-Protein Complex Between F82w Cytochrome C And Cytochrome C Peroxidase'
p928
sg36
F97.11538461538461
sS'positive'
p929
I76
sS'evalue'
p930
F4.25637e-43
sg39
g40
sS'hit-frame'
p931
I0
sg42
S'2b11'
p932
sS'bit-score'
p933
F139.813
sS'score'
p934
F351.0
sg46
I104
sg47
F97.11538461538461
sS'hseq'
p935
S'GSAKKGATLFKTRCLQCHTVEKGGPHKVGPNLHGIFGRHSGQAEGYSYTDANIKKNVLWDENNMSEYLTNPKKYIPGTKMAWGGLKKEKDRNDLITYLKKA'
p936
sS'qseq'
p937
S'GDVEKGKKIFVQKCAQCHTVEKGGKHKTGPNLHGLFGRKTGQAPGFTYTDANKNKGITWKEETLMEYLENPKKYIPGTKMIFAGIKKKTEREDLIAYLKKA'
p938
sS'hit-to'
p939
I106
stp940
a(F62.37623762376238
F97.11538461538461
(dp941
g23
F62.37623762376238
sg918
I0
sg919
I6
sg920
g11
sg921
I0
sg922
I1
sg923
I101
sg924
I63
sg925
g926
sg927
I101
sg34
S'Chain D, Crystal Structure Of The Protein-Protein Complex Between F82w Cytochrome C And Cytochrome C Peroxidase'
p942
sg36
F97.11538461538461
sg929
I76
sg930
F4.25637e-43
sg39
g114
sg931
I0
sg42
S'2b11'
p943
sg933
F139.813
sg934
F351.0
sg46
I104
sg47
F97.11538461538461
sg935
g936
sg937
g938
sg939
I106
stp944
a(F62.37623762376238
F97.11538461538461
(dp945
g23
F62.37623762376238
sS'query-frame'
p946
I0
sS'hit-from'
p947
I6
sS'num'
p948
g11
sS'gaps'
p949
I0
sS'query-from'
p950
I1
sS'query-to'
p951
I101
sS'identity'
p952
I63
sS'midline'
p953
S'G  +KG  +F  +C QCHTVEKGG HK GPNLHG+FGR +GQA G++YTDAN  K + W E  + EYL NPKKYIPGTKM   G+KK+ +R DLI YLKKA'
p954
sS'align-len'
p955
I101
sg34
S'ChainB, Crystal Structure Of The Protein-Protein Complex Between F82i Cytochrome C And Cytochrome C Peroxidase'
p956
sg36
F97.11538461538461
sS'positive'
p957
I75
sS'evalue'
p958
F5.17336e-43
sg39
g40
sS'hit-frame'
p959
I0
sg42
S'2b0z'
p960
sS'bit-score'
p961
F139.428
sS'score'
p962
F350.0
sg46
I104
sg47
F97.11538461538461
sS'hseq'
p963
S'GSAKKGATLFKTRCLQCHTVEKGGPHKVGPNLHGIFGRHSGQAEGYSYTDANIKKNVLWDENNMSEYLTNPKKYIPGTKMAIGGLKKEKDRNDLITYLKKA'
p964
sS'qseq'
p965
S'GDVEKGKKIFVQKCAQCHTVEKGGKHKTGPNLHGLFGRKTGQAPGFTYTDANKNKGITWKEETLMEYLENPKKYIPGTKMIFAGIKKKTEREDLIAYLKKA'
p966
sS'hit-to'
p967
I106
stp968
a(F62.37623762376238
F97.11538461538461
(dp969
g23
F62.37623762376238
sS'query-frame'
p970
I0
sS'hit-from'
p971
I6
sS'num'
p972
g11
sS'gaps'
p973
I0
sS'query-from'
p974
I1
sS'query-to'
p975
I101
sS'identity'
p976
I63
sS'midline'
p977
S'G  +KG  +F  +C QCHTVEKGG HK GPNLHG+FGR +GQA G++YTDAN  K + W E  + EYL NPKKYIPGTKM   G+KK+ +R DLI YLKKA'
p978
sS'align-len'
p979
I101
sg34
S'ChainB, Crystal Structure Of The Protein-Protein Complex Between F82s Cytochrome C And Cytochrome C Peroxidase'
p980
sg36
F97.11538461538461
sS'positive'
p981
I75
sS'evalue'
p982
F9.49226e-43
sg39
g40
sS'hit-frame'
p983
I0
sg42
S'2b10'
p984
sS'bit-score'
p985
F139.043
sS'score'
p986
F349.0
sg46
I104
sg47
F97.11538461538461
sS'hseq'
p987
S'GSAKKGATLFKTRCLQCHTVEKGGPHKVGPNLHGIFGRHSGQAEGYSYTDANIKKNVLWDENNMSEYLTNPKKYIPGTKMASGGLKKEKDRNDLITYLKKA'
p988
sS'qseq'
p989
S'GDVEKGKKIFVQKCAQCHTVEKGGKHKTGPNLHGLFGRKTGQAPGFTYTDANKNKGITWKEETLMEYLENPKKYIPGTKMIFAGIKKKTEREDLIAYLKKA'
p990
sS'hit-to'
p991
I106
stp992
a(F62.37623762376238
F97.11538461538461
(dp993
g23
F62.37623762376238
sg970
I0
sg971
I6
sg972
g11
sg973
I0
sg974
I1
sg975
I101
sg976
I63
sg977
g978
sg979
I101
sg34
S'Chain D, Crystal Structure Of The Protein-Protein Complex Between F82s Cytochrome C And Cytochrome C Peroxidase'
p994
sg36
F97.11538461538461
sg981
I75
sg982
F9.49226e-43
sg39
g114
sg983
I0
sg42
S'2b10'
p995
sg985
F139.043
sg986
F349.0
sg46
I104
sg47
F97.11538461538461
sg987
g988
sg989
g990
sg991
I106
stp996
a(F61.76470588235294
F98.07692307692308
(dp997
g23
F61.76470588235294
sS'query-frame'
p998
I0
sS'hit-from'
p999
I6
sS'num'
p1000
g11
sS'gaps'
p1001
I0
sS'query-from'
p1002
I1
sS'query-to'
p1003
I102
sS'identity'
p1004
I63
sS'midline'
p1005
S'G  +KG  +F  +C QCHTVEKGG HK GPNLHG+FGR +GQA G++YTDAN  K + W E  + EYL NP KYIPGTKM F G+KK+ +R DLI YLKKA+'
p1006
sS'align-len'
p1007
I102
sg34
S'ChainA, Solution Nmr Structure Of A Yeast Iso-1-Ferrocytochrome C'
p1008
sg36
F98.07692307692308
sS'positive'
p1009
I76
sS'evalue'
p1010
F1.1098e-43
sg39
g60
sS'hit-frame'
p1011
I0
sg42
S'1yfc'
p1012
sS'bit-score'
p1013
F141.354
sS'score'
p1014
F355.0
sg46
I104
sg47
F98.07692307692308
sS'hseq'
p1015
S'GSAKKGATLFKTRCLQCHTVEKGGPHKVGPNLHGIFGRHSGQAEGYSYTDANIKKNVLWDENNMSEYLTNPXKYIPGTKMAFGGLKKEKDRNDLITYLKKAS'
p1016
sS'qseq'
p1017
S'GDVEKGKKIFVQKCAQCHTVEKGGKHKTGPNLHGLFGRKTGQAPGFTYTDANKNKGITWKEETLMEYLENPKKYIPGTKMIFAGIKKKTEREDLIAYLKKAT'
p1018
sS'hit-to'
p1019
I107
stp1020
a(F61.76470588235294
F98.07692307692308
(dp1021
g23
F61.76470588235294
sS'query-frame'
p1022
I0
sS'hit-from'
p1023
I6
sS'num'
p1024
g11
sS'gaps'
p1025
I0
sS'query-from'
p1026
I1
sS'query-to'
p1027
I102
sS'identity'
p1028
I63
sS'midline'
p1029
S'G  +KG  +F  +C QCHTVEKGG HK GPNLHG+FGR +GQA G++YTDAN  K + W E  + EYL NP KYIPGTKM F G+KK+ +R DLI YLKKA+'
p1030
sS'align-len'
p1031
I102
sg34
S'ChainA, The Oxidized Saccharomyces Cerevisiae Iso-1-Cytochrome C, Nmr, 20 Structures'
p1032
sg36
F98.07692307692308
sS'positive'
p1033
I76
sS'evalue'
p1034
F1.1219e-43
sg39
g60
sS'hit-frame'
p1035
I0
sg42
S'1yic'
p1036
sS'bit-score'
p1037
F141.354
sS'score'
p1038
F355.0
sg46
I104
sg47
F98.07692307692308
sS'hseq'
p1039
S'GSAKKGATLFKTRCLQCHTVEKGGPHKVGPNLHGIFGRHSGQAEGYSYTDANIKKNVLWDENNMSEYLTNPXKYIPGTKMAFGGLKKEKDRNDLITYLKKAS'
p1040
sS'qseq'
p1041
S'GDVEKGKKIFVQKCAQCHTVEKGGKHKTGPNLHGLFGRKTGQAPGFTYTDANKNKGITWKEETLMEYLENPKKYIPGTKMIFAGIKKKTEREDLIAYLKKAT'
p1042
sS'hit-to'
p1043
I107
stp1044
a(F61.76470588235294
F98.07692307692308
(dp1045
g23
F61.76470588235294
sS'query-frame'
p1046
I0
sS'hit-from'
p1047
I6
sS'num'
p1048
g11
sS'gaps'
p1049
I0
sS'query-from'
p1050
I1
sS'query-to'
p1051
I102
sS'identity'
p1052
I63
sS'midline'
p1053
S'G  +KG  +F  +C QCHTVEKGG HK GPNLHG+FGR +GQA G++YTDAN  K + W E  + EYL NP KY+PGTKM F G+KK+ +R DLI YLKKAT'
p1054
sS'align-len'
p1055
I102
sg34
S'ChainA, Cytochrome C Isozyme 1, Reduced, Mutant With Ile 75 Replaced By Met And Cys 102 Replaced By Thr'
p1056
sg36
F98.07692307692308
sS'positive'
p1057
I76
sS'evalue'
p1058
F1.21036e-43
sg39
g60
sS'hit-frame'
p1059
I0
sg42
S'1irv'
p1060
sS'bit-score'
p1061
F141.354
sS'score'
p1062
F355.0
sg46
I104
sg47
F98.07692307692308
sS'hseq'
p1063
S'GSAKKGATLFKTRCLQCHTVEKGGPHKVGPNLHGIFGRHSGQAEGYSYTDANIKKNVLWDENNMSEYLTNPXKYMPGTKMAFGGLKKEKDRNDLITYLKKAT'
p1064
sS'qseq'
p1065
S'GDVEKGKKIFVQKCAQCHTVEKGGKHKTGPNLHGLFGRKTGQAPGFTYTDANKNKGITWKEETLMEYLENPKKYIPGTKMIFAGIKKKTEREDLIAYLKKAT'
p1066
sS'hit-to'
p1067
I107
stp1068
a(F61.76470588235294
F98.07692307692308
(dp1069
g23
F61.76470588235294
sS'query-frame'
p1070
I0
sS'hit-from'
p1071
I6
sS'num'
p1072
g11
sS'gaps'
p1073
I0
sS'query-from'
p1074
I1
sS'query-to'
p1075
I102
sS'identity'
p1076
I63
sS'midline'
p1077
S'G  +KG  +F  +C QCHTVEKGG HK GPNLHG+FGR +GQA G++YTDAN  K + W E  + EYL NP KYIPGTKM + G+KK+ +R DLI YLKKAT'
p1078
sS'align-len'
p1079
I102
sg34
S'ChainA, Structural Studies Of The Roles Of Residues 82 And 85 At The Interactive Face Of Cytochrome C'
p1080
sg36
F98.07692307692308
sS'positive'
p1081
I76
sS'evalue'
p1082
F1.36366e-43
sg39
g60
sS'hit-frame'
p1083
I0
sg42
S'1chh'
p1084
sS'bit-score'
p1085
F140.969
sS'score'
p1086
F354.0
sg46
I104
sg47
F98.07692307692308
sS'hseq'
p1087
S'GSAKKGATLFKTRCLQCHTVEKGGPHKVGPNLHGIFGRHSGQAEGYSYTDANIKKNVLWDENNMSEYLTNPXKYIPGTKMAYGGLKKEKDRNDLITYLKKAT'
p1088
sS'qseq'
p1089
S'GDVEKGKKIFVQKCAQCHTVEKGGKHKTGPNLHGLFGRKTGQAPGFTYTDANKNKGITWKEETLMEYLENPKKYIPGTKMIFAGIKKKTEREDLIAYLKKAT'
p1090
sS'hit-to'
p1091
I107
stp1092
a(F61.76470588235294
F98.07692307692308
(dp1093
g23
F61.76470588235294
sS'query-frame'
p1094
I0
sS'hit-from'
p1095
I6
sS'num'
p1096
g11
sS'gaps'
p1097
I0
sS'query-from'
p1098
I1
sS'query-to'
p1099
I102
sS'identity'
p1100
I63
sS'midline'
p1101
S'G  +KG  +F  +C QCHTVEKGG HK GPNLHG+FGR +GQA G++YTDAN  K + W E  + EYL NP KYIPGT M F G+KK+ +R DLI YLKKAT'
p1102
sS'align-len'
p1103
I102
sg34
S'ChainA, Structural Model For An Alkaline Form Of Ferricytochrome C'
p1104
sg36
F98.07692307692308
sS'positive'
p1105
I75
sS'evalue'
p1106
F1.60447e-43
sg39
g60
sS'hit-frame'
p1107
I0
sg42
S'1lms'
p1108
sS'bit-score'
p1109
F140.969
sS'score'
p1110
F354.0
sg46
I104
sg47
F98.07692307692308
sS'hseq'
p1111
S'GSAKKGATLFKTRCLQCHTVEKGGPHKVGPNLHGIFGRHSGQAEGYSYTDANIKKNVLWDENNMSEYLTNPAKYIPGTAMAFGGLKKEKDRNDLITYLKKAT'
p1112
sS'qseq'
p1113
S'GDVEKGKKIFVQKCAQCHTVEKGGKHKTGPNLHGLFGRKTGQAPGFTYTDANKNKGITWKEETLMEYLENPKKYIPGTKMIFAGIKKKTEREDLIAYLKKAT'
p1114
sS'hit-to'
p1115
I107
stp1116
a(F61.76470588235294
F98.07692307692308
(dp1117
g23
F61.76470588235294
sS'query-frame'
p1118
I0
sS'hit-from'
p1119
I6
sS'num'
p1120
g11
sS'gaps'
p1121
I0
sS'query-from'
p1122
I1
sS'query-to'
p1123
I102
sS'identity'
p1124
I63
sS'midline'
p1125
S'G  +KG  +F  +C QCHTVEKGG HK GPNLHG+FGR +GQA G++YTDAN  K + W E  + E+L NP KYIPGTKM F G+KK+ +R DLI YLKKAT'
p1126
sS'align-len'
p1127
I102
sg34
S'ChainA, Mutation Of Tyrosine-67 In Cytochrome C Significantly Alters The Local Heme Environment'
p1128
sg36
F98.07692307692308
sS'positive'
p1129
I76
sS'evalue'
p1130
F1.67557e-43
sg39
g60
sS'hit-frame'
p1131
I0
sg42
S'1cty'
p1132
sS'bit-score'
p1133
F140.969
sS'score'
p1134
F354.0
sg46
I104
sg47
F98.07692307692308
sS'hseq'
p1135
S'GSAKKGATLFKTRCLQCHTVEKGGPHKVGPNLHGIFGRHSGQAEGYSYTDANIKKNVLWDENNMSEFLTNPXKYIPGTKMAFGGLKKEKDRNDLITYLKKAT'
p1136
sS'qseq'
p1137
S'GDVEKGKKIFVQKCAQCHTVEKGGKHKTGPNLHGLFGRKTGQAPGFTYTDANKNKGITWKEETLMEYLENPKKYIPGTKMIFAGIKKKTEREDLIAYLKKAT'
p1138
sS'hit-to'
p1139
I107
stp1140
a(F61.76470588235294
F98.07692307692308
(dp1141
g23
F61.76470588235294
sg1118
I0
sg1119
I6
sg1120
g11
sg1121
I0
sg1122
I1
sg1123
I102
sg1124
I63
sg1125
g1126
sg1127
I102
sg34
S'Chain A, Mutation Of Tyrosine-67 In Cytochrome C Significantly Alters The Local Heme Environment'
p1142
sg36
F98.07692307692308
sg1129
I76
sg1130
F1.67557e-43
sg39
g60
sg1131
I0
sg42
S'1ctz'
p1143
sg1133
F140.969
sg1134
F354.0
sg46
I104
sg47
F98.07692307692308
sg1135
g1136
sg1137
g1138
sg1139
I107
stp1144
a(F61.76470588235294
F98.07692307692308
(dp1145
g23
F61.76470588235294
sS'query-frame'
p1146
I0
sS'hit-from'
p1147
I6
sS'num'
p1148
g11
sS'gaps'
p1149
I0
sS'query-from'
p1150
I1
sS'query-to'
p1151
I102
sS'identity'
p1152
I63
sS'midline'
p1153
S'G  +KG  +F  +C QCHTVEKGG HK GPNLHG+FGR +GQA G++YTDAN  K + W E  + EYL NP KYIPGTKM + G KK+ +R DLI YLKKAT'
p1154
sS'align-len'
p1155
I102
sg34
S'ChainA, Structural Studies Of The Roles Of Residues 82 And 85 At The Interactive Face Of Cytochrome C'
p1156
sg36
F98.07692307692308
sS'positive'
p1157
I75
sS'evalue'
p1158
F4.03183e-43
sg39
g60
sS'hit-frame'
p1159
I0
sg42
S'1chi'
p1160
sS'bit-score'
p1161
F139.813
sS'score'
p1162
F351.0
sg46
I104
sg47
F98.07692307692308
sS'hseq'
p1163
S'GSAKKGATLFKTRCLQCHTVEKGGPHKVGPNLHGIFGRHSGQAEGYSYTDANIKKNVLWDENNMSEYLTNPXKYIPGTKMAYGGAKKEKDRNDLITYLKKAT'
p1164
sS'qseq'
p1165
S'GDVEKGKKIFVQKCAQCHTVEKGGKHKTGPNLHGLFGRKTGQAPGFTYTDANKNKGITWKEETLMEYLENPKKYIPGTKMIFAGIKKKTEREDLIAYLKKAT'
p1166
sS'hit-to'
p1167
I107
stp1168
a(F61.76470588235294
F98.07692307692308
(dp1169
g23
F61.76470588235294
sS'query-frame'
p1170
I0
sS'hit-from'
p1171
I6
sS'num'
p1172
g11
sS'gaps'
p1173
I0
sS'query-from'
p1174
I1
sS'query-to'
p1175
I102
sS'identity'
p1176
I63
sS'midline'
p1177
S'G  +KG  +F  +C QCHTVEKGG HK GPNLHG+FGR +GQA G++YTDAN  K + W E  + EYL NP KYIPGTKM F G+KK+ +R D I YLKKAT'
p1178
sS'align-len'
p1179
I102
sg34
S'ChainA, Replacements In A Conserved Leucine Cluster In The Hydrophobic Heme Pocket Of Cytochrome C'
p1180
sg36
F98.07692307692308
sS'positive'
p1181
I75
sS'evalue'
p1182
F4.34965e-43
sg39
g60
sS'hit-frame'
p1183
I0
sg42
S'1csx'
p1184
sS'bit-score'
p1185
F139.813
sS'score'
p1186
F351.0
sg46
I104
sg47
F98.07692307692308
sS'hseq'
p1187
S'GSAKKGATLFKTRCLQCHTVEKGGPHKVGPNLHGIFGRHSGQAEGYSYTDANIKKNVLWDENNMSEYLTNPXKYIPGTKMAFGGLKKEKDRNDSITYLKKAT'
p1188
sS'qseq'
p1189
S'GDVEKGKKIFVQKCAQCHTVEKGGKHKTGPNLHGLFGRKTGQAPGFTYTDANKNKGITWKEETLMEYLENPKKYIPGTKMIFAGIKKKTEREDLIAYLKKAT'
p1190
sS'hit-to'
p1191
I107
stp1192
a(F61.76470588235294
F98.07692307692308
(dp1193
g23
F61.76470588235294
sS'query-frame'
p1194
I0
sS'hit-from'
p1195
I6
sS'num'
p1196
g11
sS'gaps'
p1197
I0
sS'query-from'
p1198
I1
sS'query-to'
p1199
I102
sS'identity'
p1200
I63
sS'midline'
p1201
S'G  +KG  +F  +C QCHTVEKGG HK GPNLHG+FGR +GQA G++YTDA   K + W E  + EYL NP KYIPGTKM F G+KK+ +R DLI YLKKAT'
p1202
sS'align-len'
p1203
I102
sg34
S'ChainA, Cytochrome C Isozyme 1, Reduced, Mutant With Asn 52 Replaced By Ala And Cys 102 Replaced By Thr'
p1204
sg36
F98.07692307692308
sS'positive'
p1205
I75
sS'evalue'
p1206
F4.90045e-43
sg39
g60
sS'hit-frame'
p1207
I0
sg42
S'1irw'
p1208
sS'bit-score'
p1209
F139.813
sS'score'
p1210
F351.0
sg46
I104
sg47
F98.07692307692308
sS'hseq'
p1211
S'GSAKKGATLFKTRCLQCHTVEKGGPHKVGPNLHGIFGRHSGQAEGYSYTDAAIKKNVLWDENNMSEYLTNPXKYIPGTKMAFGGLKKEKDRNDLITYLKKAT'
p1212
sS'qseq'
p1213
S'GDVEKGKKIFVQKCAQCHTVEKGGKHKTGPNLHGLFGRKTGQAPGFTYTDANKNKGITWKEETLMEYLENPKKYIPGTKMIFAGIKKKTEREDLIAYLKKAT'
p1214
sS'hit-to'
p1215
I107
stp1216
a(F61.76470588235294
F98.07692307692308
(dp1217
g23
F61.76470588235294
sS'query-frame'
p1218
I0
sS'hit-from'
p1219
I6
sS'num'
p1220
g11
sS'gaps'
p1221
I0
sS'query-from'
p1222
I1
sS'query-to'
p1223
I102
sS'identity'
p1224
I63
sS'midline'
p1225
S'G  +KG  +F  +C QCHTVEKGG HK GPNLHG+FGR +GQA G++YTDAN  K + W E  + EYL N  KYIPGTKM F G+KK+ +R DLI YLKKAT'
p1226
sS'align-len'
p1227
I102
sg34
S'ChainA, Nmr Solution Structure Of Yeast Iso-1-Cytochrome C Mutant P71h In Oxidized States'
p1228
sg36
F98.07692307692308
sS'positive'
p1229
I75
sS'evalue'
p1230
F1.02404e-42
sg39
g60
sS'hit-frame'
p1231
I0
sg42
S'2lir'
p1232
sS'bit-score'
p1233
F138.658
sS'score'
p1234
F348.0
sg46
I104
sg47
F98.07692307692308
sS'hseq'
p1235
S'GSAKKGATLFKTRCLQCHTVEKGGPHKVGPNLHGIFGRHSGQAEGYSYTDANIKKNVLWDENNMSEYLTNHAKYIPGTKMAFGGLKKEKDRNDLITYLKKAT'
p1236
sS'qseq'
p1237
S'GDVEKGKKIFVQKCAQCHTVEKGGKHKTGPNLHGLFGRKTGQAPGFTYTDANKNKGITWKEETLMEYLENPKKYIPGTKMIFAGIKKKTEREDLIAYLKKAT'
p1238
sS'hit-to'
p1239
I107
stp1240
a(F61.76470588235294
F98.07692307692308
(dp1241
g23
F61.76470588235294
sg1218
I0
sg1219
I6
sg1220
g11
sg1221
I0
sg1222
I1
sg1223
I102
sg1224
I63
sg1225
g1226
sg1227
I102
sg34
S'Chain A, Nmr Solution Structure Of Yeast Iso-1-Cytochrome C Mutant P71h In Reduced States'
p1242
sg36
F98.07692307692308
sg1229
I75
sg1230
F1.02404e-42
sg39
g60
sg1231
I0
sg42
S'2lit'
p1243
sg1233
F138.658
sg1234
F348.0
sg46
I104
sg47
F98.07692307692308
sg1235
g1236
sg1237
g1238
sg1239
I107
stp1244
a(F61.76470588235294
F98.07692307692308
(dp1245
g23
F61.76470588235294
sS'query-frame'
p1246
I0
sS'hit-from'
p1247
I6
sS'num'
p1248
g11
sS'gaps'
p1249
I0
sS'query-from'
p1250
I1
sS'query-to'
p1251
I102
sS'identity'
p1252
I63
sS'midline'
p1253
S'G  +KG  +F  +C QCHTVEKGG HK GPNLHG+FGR +GQA G++YTDA   K + W E  + EYL NP KYIPGTKM F G+KK+ +R DLI YLKKAT'
p1254
sS'align-len'
p1255
I102
sg34
S'ChainA, The Role Of A Conserved Internal Water Molecule And Its Associated Hydrogen Bond Network In Cytochrome C'
p1256
sg36
F98.07692307692308
sS'positive'
p1257
I75
sS'evalue'
p1258
F1.05788e-42
sg39
g60
sS'hit-frame'
p1259
I0
sg42
S'1crg'
p1260
sS'bit-score'
p1261
F138.658
sS'score'
p1262
F348.0
sg46
I104
sg47
F98.07692307692308
sS'hseq'
p1263
S'GSAKKGATLFKTRCLQCHTVEKGGPHKVGPNLHGIFGRHSGQAEGYSYTDAIIKKNVLWDENNMSEYLTNPXKYIPGTKMAFGGLKKEKDRNDLITYLKKAT'
p1264
sS'qseq'
p1265
S'GDVEKGKKIFVQKCAQCHTVEKGGKHKTGPNLHGLFGRKTGQAPGFTYTDANKNKGITWKEETLMEYLENPKKYIPGTKMIFAGIKKKTEREDLIAYLKKAT'
p1266
sS'hit-to'
p1267
I107
stp1268
a(F61.386138613861384
F97.11538461538461
(dp1269
g23
F61.386138613861384
sS'query-frame'
p1270
I0
sS'hit-from'
p1271
I6
sS'num'
p1272
g11
sS'gaps'
p1273
I0
sS'query-from'
p1274
I1
sS'query-to'
p1275
I101
sS'identity'
p1276
I62
sS'midline'
p1277
S'G  +KG  +F  +C QCHTVEKGG HK GPNLHG+FGR +GQA G++YTDA   K + W E  + EYL NP KYIPGTKM F G+KK+ +R DLI YLKKA'
p1278
sS'align-len'
p1279
I101
sg34
S'ChainA, The Role Of A Conserved Internal Water Molecule And Its Associated Hydrogen Bond Network In Cytochrome C'
p1280
sg36
F97.11538461538461
sS'positive'
p1281
I74
sS'evalue'
p1282
F7.04663e-42
sg39
g60
sS'hit-frame'
p1283
I0
sg42
S'1crh'
p1284
sS'bit-score'
p1285
F136.732
sS'score'
p1286
F343.0
sg46
I104
sg47
F97.11538461538461
sS'hseq'
p1287
S'GSAKKGATLFKTRCLQCHTVEKGGPHKVGPNLHGIFGRHSGQAEGYSYTDAIIKKNVLWDENNMSEYLTNPXKYIPGTKMAFGGLKKEKDRNDLITYLKKA'
p1288
sS'qseq'
p1289
S'GDVEKGKKIFVQKCAQCHTVEKGGKHKTGPNLHGLFGRKTGQAPGFTYTDANKNKGITWKEETLMEYLENPKKYIPGTKMIFAGIKKKTEREDLIAYLKKA'
p1290
sS'hit-to'
p1291
I106
stp1292
a(F60.78431372549019
F98.07692307692308
(dp1293
g23
F60.78431372549019
sS'query-frame'
p1294
I0
sS'hit-from'
p1295
I6
sS'num'
p1296
g11
sS'gaps'
p1297
I0
sS'query-from'
p1298
I1
sS'query-to'
p1299
I102
sS'identity'
p1300
I62
sS'midline'
p1301
S'G  +KG  +F  +C QCHTVEKGG HK GPNLHG+FGR++GQA G++YTDAN  K + W E  + EYL NP KYIPGTK  F G+KK+ +R DLI YLKKA+'
p1302
sS'align-len'
p1303
I102
sg34
S'ChainA, Three-Dimensional Solution Structure Of The Cyanide Adduct Of A Met80ala Variant Of Saccharomyces Cerevisiae Iso-1- Cytochrome C. Identification Of Ligand-Residue Interactions In The Distal Heme Cavity'
p1304
sg36
F98.07692307692308
sS'positive'
p1305
I76
sS'evalue'
p1306
F5.11759e-43
sg39
g60
sS'hit-frame'
p1307
I0
sg42
S'1fhb'
p1308
sS'bit-score'
p1309
F139.428
sS'score'
p1310
F350.0
sg46
I104
sg47
F98.07692307692308
sS'hseq'
p1311
S'GSAKKGATLFKTRCLQCHTVEKGGPHKVGPNLHGIFGRQSGQAEGYSYTDANIKKNVLWDENNMSEYLTNPXKYIPGTKAAFGGLKKEKDRNDLITYLKKAS'
p1312
sS'qseq'
p1313
S'GDVEKGKKIFVQKCAQCHTVEKGGKHKTGPNLHGLFGRKTGQAPGFTYTDANKNKGITWKEETLMEYLENPKKYIPGTKMIFAGIKKKTEREDLIAYLKKAT'
p1314
sS'hit-to'
p1315
I107
stp1316
a(F60.78431372549019
F98.07692307692308
(dp1317
g23
F60.78431372549019
sS'query-frame'
p1318
I0
sS'hit-from'
p1319
I6
sS'num'
p1320
g11
sS'gaps'
p1321
I0
sS'query-from'
p1322
I1
sS'query-to'
p1323
I102
sS'identity'
p1324
I62
sS'midline'
p1325
S'G  +KG  +F  +C QCHTVEKGG HK GPNLHG+FGR +GQA G++YTDA   K + W E  + E+L NP KYIPGTKM F G+KK+ +R DLI YLKKAT'
p1326
sS'align-len'
p1327
I102
sg34
S'ChainA, The Role Of A Conserved Internal Water Molecule And Its Associated Hydrogen Bond Network In Cytochrome C'
p1328
sg36
F98.07692307692308
sS'positive'
p1329
I75
sS'evalue'
p1330
F3.56072e-42
sg39
g60
sS'hit-frame'
p1331
I0
sg42
S'1cri'
p1332
sS'bit-score'
p1333
F137.502
sS'score'
p1334
F345.0
sg46
I104
sg47
F98.07692307692308
sS'hseq'
p1335
S'GSAKKGATLFKTRCLQCHTVEKGGPHKVGPNLHGIFGRHSGQAEGYSYTDAIIKKNVLWDENNMSEFLTNPXKYIPGTKMAFGGLKKEKDRNDLITYLKKAT'
p1336
sS'qseq'
p1337
S'GDVEKGKKIFVQKCAQCHTVEKGGKHKTGPNLHGLFGRKTGQAPGFTYTDANKNKGITWKEETLMEYLENPKKYIPGTKMIFAGIKKKTEREDLIAYLKKAT'
p1338
sS'hit-to'
p1339
I107
stp1340
a(F60.78431372549019
F98.07692307692308
(dp1341
g23
F60.78431372549019
sg1318
I0
sg1319
I6
sg1320
g11
sg1321
I0
sg1322
I1
sg1323
I102
sg1324
I62
sg1325
g1326
sg1327
I102
sg34
S'Chain A, The Role Of A Conserved Internal Water Molecule And Its Associated Hydrogen Bond Network In Cytochrome C'
p1342
sg36
F98.07692307692308
sg1329
I75
sg1330
F3.56072e-42
sg39
g60
sg1331
I0
sg42
S'1crj'
p1343
sg1333
F137.502
sg1334
F345.0
sg46
I104
sg47
F98.07692307692308
sg1335
g1336
sg1337
g1338
sg1339
I107
stp1344
a(F60.19417475728155
F99.03846153846153
(dp1345
g23
F60.19417475728155
sS'query-frame'
p1346
I0
sS'hit-from'
p1347
I10
sS'num'
p1348
g11
sS'gaps'
p1349
I0
sS'query-from'
p1350
I1
sS'query-to'
p1351
I103
sS'identity'
p1352
I62
sS'midline'
p1353
S'G+ + G+KIF  KCAQCHTV+KG  HK GPNL+GLFGR++G  PG++Y+ A+KN  + W+E TL +YL NP KYIPGTKM+F G+ K  ER DLI+YLK+AT+'
p1354
sS'align-len'
p1355
I103
sg34
S'ChainA, Structure Of Rice Ferricytochrome C At 2.0 Angstroms Resolution'
p1356
sg36
F99.03846153846153
sS'positive'
p1357
I81
sS'evalue'
p1358
F1.15398e-43
sg39
g60
sS'hit-frame'
p1359
I0
sg42
S'1ccr'
p1360
sS'bit-score'
p1361
F141.354
sS'score'
p1362
F355.0
sg46
I104
sg47
F99.03846153846153
sS'hseq'
p1363
S'GNPKAGEKIFKTKCAQCHTVDKGAGHKQGPNLNGLFGRQSGTTPGYSYSTADKNMAVIWEENTLYDYLLNPXKYIPGTKMVFPGLXKPQERADLISYLKEATS'
p1364
sS'qseq'
p1365
S'GDVEKGKKIFVQKCAQCHTVEKGGKHKTGPNLHGLFGRKTGQAPGFTYTDANKNKGITWKEETLMEYLENPKKYIPGTKMIFAGIKKKTEREDLIAYLKKATN'
p1366
sS'hit-to'
p1367
I112
stp1368
a(F59.80392156862745
F98.07692307692308
(dp1369
g23
F59.80392156862745
sS'query-frame'
p1370
I0
sS'hit-from'
p1371
I6
sS'num'
p1372
g11
sS'gaps'
p1373
I0
sS'query-from'
p1374
I1
sS'query-to'
p1375
I102
sS'identity'
p1376
I61
sS'midline'
p1377
S'G  +KG  +F  +C QCHTVEKGG HK GPNLHG+FG  +GQA G++YTDAN  K + W E  + EYL NP KYIPGTKM   G+KK+ +R DLI YLKKA '
p1378
sS'align-len'
p1379
I102
sg34
S'ChainA, Structural And Functional Effects Of Multiple Mutations At Distal Sites In Cytochrome C'
p1380
sg36
F98.07692307692308
sS'positive'
p1381
I73
sS'evalue'
p1382
F3.10815e-41
sg39
g60
sS'hit-frame'
p1383
I0
sg42
S'1cif'
p1384
sS'bit-score'
p1385
F135.191
sS'score'
p1386
F339.0
sg46
I104
sg47
F98.07692307692308
sS'hseq'
p1387
S'GSAKKGATLFKTRCLQCHTVEKGGPHKVGPNLHGIFGAHSGQAEGYSYTDANIKKNVLWDENNMSEYLTNPXKYIPGTKMASGGLKKEKDRNDLITYLKKAA'
p1388
sS'qseq'
p1389
S'GDVEKGKKIFVQKCAQCHTVEKGGKHKTGPNLHGLFGRKTGQAPGFTYTDANKNKGITWKEETLMEYLENPKKYIPGTKMIFAGIKKKTEREDLIAYLKKAT'
p1390
sS'hit-to'
p1391
I107
stp1392
a(F59.80392156862745
F98.07692307692308
(dp1393
g23
F59.80392156862745
sS'query-frame'
p1394
I0
sS'hit-from'
p1395
I6
sS'num'
p1396
g11
sS'gaps'
p1397
I0
sS'query-from'
p1398
I1
sS'query-to'
p1399
I102
sS'identity'
p1400
I61
sS'midline'
p1401
S'G  +KG  +F  +C QCHTVEKGG HK GPNLHG+FG  +GQA G++YTDA   K + W E  + EYL NP KYIPGTKM F G+KK+ +R DLI YLKKA '
p1402
sS'align-len'
p1403
I102
sg34
S'ChainA, Structural And Functional Effects Of Multiple Mutations At Distal Sites In Cytochrome C'
p1404
sg36
F98.07692307692308
sS'positive'
p1405
I73
sS'evalue'
p1406
F5.28421e-41
sg39
g60
sS'hit-frame'
p1407
I0
sg42
S'1cig'
p1408
sS'bit-score'
p1409
F134.42
sS'score'
p1410
F337.0
sg46
I104
sg47
F98.07692307692308
sS'hseq'
p1411
S'GSAKKGATLFKTRCLQCHTVEKGGPHKVGPNLHGIFGAHSGQAEGYSYTDAIIKKNVLWDENNMSEYLTNPXKYIPGTKMAFGGLKKEKDRNDLITYLKKAA'
p1412
sS'qseq'
p1413
S'GDVEKGKKIFVQKCAQCHTVEKGGKHKTGPNLHGLFGRKTGQAPGFTYTDANKNKGITWKEETLMEYLENPKKYIPGTKMIFAGIKKKTEREDLIAYLKKAT'
p1414
sS'hit-to'
p1415
I107
stp1416
a(F59.80392156862745
F98.07692307692308
(dp1417
g23
F59.80392156862745
sS'query-frame'
p1418
I0
sS'hit-from'
p1419
I6
sS'num'
p1420
g11
sS'gaps'
p1421
I0
sS'query-from'
p1422
I1
sS'query-to'
p1423
I102
sS'identity'
p1424
I61
sS'midline'
p1425
S'G  +KG  +F  +C QCHTVEKGG HK GPNLHG+FGR +GQA G++YTDA   K + W E  + EYL NP KYIPGTKM   G+KK+ +R DLI YLKKA '
p1426
sS'align-len'
p1427
I102
sg34
S'ChainA, Structural And Functional Effects Of Multiple Mutations At Distal Sites In Cytochrome C'
p1428
sg36
F98.07692307692308
sS'positive'
p1429
I73
sS'evalue'
p1430
F6.56215e-41
sg39
g60
sS'hit-frame'
p1431
I0
sg42
S'1cie'
p1432
sS'bit-score'
p1433
F134.035
sS'score'
p1434
F336.0
sg46
I104
sg47
F98.07692307692308
sS'hseq'
p1435
S'GSAKKGATLFKTRCLQCHTVEKGGPHKVGPNLHGIFGRHSGQAEGYSYTDAIIKKNVLWDENNMSEYLTNPXKYIPGTKMASGGLKKEKDRNDLITYLKKAA'
p1436
sS'qseq'
p1437
S'GDVEKGKKIFVQKCAQCHTVEKGGKHKTGPNLHGLFGRKTGQAPGFTYTDANKNKGITWKEETLMEYLENPKKYIPGTKMIFAGIKKKTEREDLIAYLKKAT'
p1438
sS'hit-to'
p1439
I107
stp1440
a(F59.40594059405941
F97.11538461538461
(dp1441
g23
F59.40594059405941
sS'query-frame'
p1442
I0
sS'hit-from'
p1443
I6
sS'num'
p1444
g11
sS'gaps'
p1445
I0
sS'query-from'
p1446
I1
sS'query-to'
p1447
I101
sS'identity'
p1448
I60
sS'midline'
p1449
S'G  +KG  +F  +C QCHT+E+GG +K GPNLHG+FGR +GQ  G++YTDAN NK + W E+++ EYL NP KYIPGTKM F G+KK+ +R DLI YLKKA'
p1450
sS'align-len'
p1451
I101
sg34
S'ChainA, Structure Determination And Analysis Of Yeast Iso-2- Cytochrome C And A Composite Mutant Protein'
p1452
sg36
F97.11538461538461
sS'positive'
p1453
I77
sS'evalue'
p1454
F1.91997e-42
sg39
g60
sS'hit-frame'
p1455
I0
sg42
S'1yeb'
p1456
sS'bit-score'
p1457
F138.272
sS'score'
p1458
F347.0
sg46
I104
sg47
F97.11538461538461
sS'hseq'
p1459
S'GSAKKGATLFKTRCQQCHTIEEGGPNKVGPNLHGIFGRHSGQVKGYSYTDANINKNVKWDEDSMSEYLTNPXKYIPGTKMAFGGLKKEKDRNDLITYLKKA'
p1460
sS'qseq'
p1461
S'GDVEKGKKIFVQKCAQCHTVEKGGKHKTGPNLHGLFGRKTGQAPGFTYTDANKNKGITWKEETLMEYLENPKKYIPGTKMIFAGIKKKTEREDLIAYLKKA'
p1462
sS'hit-to'
p1463
I106
stp1464
a(F59.40594059405941
F97.11538461538461
(dp1465
g23
F59.40594059405941
sS'query-frame'
p1466
I0
sS'hit-from'
p1467
I6
sS'num'
p1468
g11
sS'gaps'
p1469
I0
sS'query-from'
p1470
I1
sS'query-to'
p1471
I101
sS'identity'
p1472
I60
sS'midline'
p1473
S'G  +KG  +F  +C QCHTV++GG +K GPNLHG+FGR +GQA G++YTDAN  K + W E  + EYL NP KYIPGTKM F G+KK+ +R DLI YLKKA'
p1474
sS'align-len'
p1475
I101
sg34
S'ChainA, The Structure And Function Of Omega Loop A Replacements In Cytochrome C'
p1476
sg36
F97.11538461538461
sS'positive'
p1477
I75
sS'evalue'
p1478
F1.04079e-41
sg39
g60
sS'hit-frame'
p1479
I0
sg42
S'1raq'
p1480
sS'bit-score'
p1481
F136.346
sS'score'
p1482
F342.0
sg46
I104
sg47
F97.11538461538461
sS'hseq'
p1483
S'GSAKKGATLFKTRCLQCHTVDQGGANKVGPNLHGIFGRHSGQAEGYSYTDANIKKNVLWDENNMSEYLTNPXKYIPGTKMAFGGLKKEKDRNDLITYLKKA'
p1484
sS'qseq'
p1485
S'GDVEKGKKIFVQKCAQCHTVEKGGKHKTGPNLHGLFGRKTGQAPGFTYTDANKNKGITWKEETLMEYLENPKKYIPGTKMIFAGIKKKTEREDLIAYLKKA'
p1486
sS'hit-to'
p1487
I106
stp1488
a(F58.8235294117647
F98.07692307692308
(dp1489
g23
F58.8235294117647
sS'query-frame'
p1490
I0
sS'hit-from'
p1491
I6
sS'num'
p1492
g11
sS'gaps'
p1493
I0
sS'query-from'
p1494
I1
sS'query-to'
p1495
I102
sS'identity'
p1496
I60
sS'midline'
p1497
S'G  +KG  +F  +C QCHTVEKGG HK GPNLHG+FG  +GQA G++YTDA   K + W E  + EYL NP KYIPGTKM   G+KK+ +R DLI YLKKA '
p1498
sS'align-len'
p1499
I102
sg34
S'ChainA, Structural And Functional Effects Of Multiple Mutations At Distal Sites In Cytochrome C'
p1500
sg36
F98.07692307692308
sS'positive'
p1501
I72
sS'evalue'
p1502
F8.53939e-40
sg39
g60
sS'hit-frame'
p1503
I0
sg42
S'1cih'
p1504
sS'bit-score'
p1505
F131.339
sS'score'
p1506
F329.0
sg46
I104
sg47
F98.07692307692308
sS'hseq'
p1507
S'GSAKKGATLFKTRCLQCHTVEKGGPHKVGPNLHGIFGAHSGQAEGYSYTDAIIKKNVLWDENNMSEYLTNPXKYIPGTKMASGGLKKEKDRNDLITYLKKAA'
p1508
sS'qseq'
p1509
S'GDVEKGKKIFVQKCAQCHTVEKGGKHKTGPNLHGLFGRKTGQAPGFTYTDANKNKGITWKEETLMEYLENPKKYIPGTKMIFAGIKKKTEREDLIAYLKKAT'
p1510
sS'hit-to'
p1511
I107
stp1512
a(F58.415841584158414
F97.11538461538461
(dp1513
g23
F58.415841584158414
sS'query-frame'
p1514
I0
sS'hit-from'
p1515
I10
sS'num'
p1516
g11
sS'gaps'
p1517
I0
sS'query-from'
p1518
I1
sS'query-to'
p1519
I101
sS'identity'
p1520
I59
sS'midline'
p1521
S'G  +KG  +F  +C QCHT+E+GG +K GPNLHG+FGR +GQ  G++YTDAN NK + W E+++ EYL NP KYIPGTKM FAG+KK+ +R DLI Y+ KA'
p1522
sS'align-len'
p1523
I101
sg34
S'ChainW, Structure Of Yeast Complex Iii With Isoform-2 Cytochrome C Bound And Definition Of A Minimal Core Interface For Electron Transfer.'
p1524
sg36
F97.11538461538461
sS'positive'
p1525
I77
sS'evalue'
p1526
F2.91503e-42
sg39
g898
sS'hit-frame'
p1527
I0
sg42
S'3cxh'
p1528
sS'bit-score'
p1529
F137.887
sS'score'
p1530
F346.0
sg46
I104
sg47
F97.11538461538461
sS'hseq'
p1531
S'GSAKKGATLFKTRCQQCHTIEEGGPNKVGPNLHGIFGRHSGQVKGYSYTDANINKNVKWDEDSMSEYLTNPXKYIPGTKMAFAGLKKEKDRNDLITYMTKA'
p1532
sS'qseq'
p1533
S'GDVEKGKKIFVQKCAQCHTVEKGGKHKTGPNLHGLFGRKTGQAPGFTYTDANKNKGITWKEETLMEYLENPKKYIPGTKMIFAGIKKKTEREDLIAYLKKA'
p1534
sS'hit-to'
p1535
I110
stp1536
a(F58.415841584158414
F97.11538461538461
(dp1537
g23
F58.415841584158414
sg1514
I0
sg1515
I10
sg1516
g11
sg1517
I0
sg1518
I1
sg1519
I101
sg1520
I59
sg1521
g1522
sg1523
I101
sg34
S'Chain A, Structure Determination And Analysis Of Yeast Iso-2- Cytochrome C And A Composite Mutant Protein'
p1538
sg36
F97.11538461538461
sg1525
I77
sg1526
F2.91503e-42
sg39
g60
sg1527
I0
sg42
S'1yea'
p1539
sg1529
F137.887
sg1530
F346.0
sg46
I104
sg47
F97.11538461538461
sg1531
g1532
sg1533
g1534
sg1535
I110
stp1540
a(F58.415841584158414
F97.11538461538461
(dp1541
g23
F58.415841584158414
sS'query-frame'
p1542
I0
sS'hit-from'
p1543
I6
sS'num'
p1544
g11
sS'gaps'
p1545
I0
sS'query-from'
p1546
I1
sS'query-to'
p1547
I101
sS'identity'
p1548
I59
sS'midline'
p1549
S'G  +KG  +F  +C QCHT ++GG +K GPNLHG+FGR +GQA G++YTDAN  K + W E  + EYL NP KYIPGTKM F G+KK+ +R DLI YLKKA'
p1550
sS'align-len'
p1551
I101
sg34
S'ChainA, The Structure And Function Of Omega Loop A Replacements In Cytochrome C'
p1552
sg36
F97.11538461538461
sS'positive'
p1553
I74
sS'evalue'
p1554
F6.14931e-41
sg39
g60
sS'hit-frame'
p1555
I0
sg42
S'1rap'
p1556
sS'bit-score'
p1557
F134.42
sS'score'
p1558
F337.0
sg46
I104
sg47
F97.11538461538461
sS'hseq'
p1559
S'GSAKKGATLFKTRCLQCHTFDQGGANKVGPNLHGIFGRHSGQAEGYSYTDANIKKNVLWDENNMSEYLTNPXKYIPGTKMAFGGLKKEKDRNDLITYLKKA'
p1560
sS'qseq'
p1561
S'GDVEKGKKIFVQKCAQCHTVEKGGKHKTGPNLHGLFGRKTGQAPGFTYTDANKNKGITWKEETLMEYLENPKKYIPGTKMIFAGIKKKTEREDLIAYLKKA'
p1562
sS'hit-to'
p1563
I106
stp1564
a(F57.57575757575758
F95.1923076923077
(dp1565
g23
F57.57575757575758
sS'query-frame'
p1566
I0
sS'hit-from'
p1567
I12
sS'num'
p1568
g11
sS'gaps'
p1569
I0
sS'query-from'
p1570
I1
sS'query-to'
p1571
I99
sS'identity'
p1572
I57
sS'midline'
p1573
S'GDVE+G+K+F  + AQCHT  KGG +  GPNL G+  R +G+  GFTY+ AN   G+ W  E L  YLENPKK++PGTKM FAGIKK  ER D+IAYL+'
p1574
sS'align-len'
p1575
I99
sg34
S'ChainA, Leishmania Major Peroxidase Is A Cytochrome C Peroxidase'
p1576
sg36
F95.1923076923077
sS'positive'
p1577
I71
sS'evalue'
p1578
F2.2395e-37
sg39
g60
sS'hit-frame'
p1579
I0
sg42
S'4dy9'
p1580
sS'bit-score'
p1581
F125.176
sS'score'
p1582
F313.0
sg46
I104
sg47
F95.1923076923077
sS'hseq'
p1583
S'GDVERGEKLFKGRAAQCHTATKGGSNGVGPNLFGIVNRPSGKVEGFTYSKANAESGVIWTPEVLDVYLENPKKFMPGTKMSFAGIKKPQERADVIAYLE'
p1584
sS'qseq'
p1585
S'GDVEKGKKIFVQKCAQCHTVEKGGKHKTGPNLHGLFGRKTGQAPGFTYTDANKNKGITWKEETLMEYLENPKKYIPGTKMIFAGIKKKTEREDLIAYLK'
p1586
sS'hit-to'
p1587
I110
stp1588
a(F57.57575757575758
F95.1923076923077
(dp1589
g23
F57.57575757575758
sg1566
I0
sg1567
I12
sg1568
g11
sg1569
I0
sg1570
I1
sg1571
I99
sg1572
I57
sg1573
g1574
sg1575
I99
sg34
S'Chain B, Crystal Structure Of The Leishmania Major Peroxidase-Cytochrome C Complex'
p1590
sg36
F95.1923076923077
sg1577
I71
sg1578
F2.2395e-37
sg39
g40
sg1579
I0
sg42
S'4ged'
p1591
sg1581
F125.176
sg1582
F313.0
sg46
I104
sg47
F95.1923076923077
sg1583
g1584
sg1585
g1586
sg1587
I110
stp1592
a(F57.42574257425743
F97.11538461538461
(dp1593
g23
F57.42574257425743
sS'query-frame'
p1594
I0
sS'hit-from'
p1595
I10
sS'num'
p1596
g11
sS'gaps'
p1597
I0
sS'query-from'
p1598
I1
sS'query-to'
p1599
I101
sS'identity'
p1600
I58
sS'midline'
p1601
S'G  +KG  +F  +C QCHT+E+GG +K GPNLHG+FGR +GQ  G++YTDA  NK + W E+++ EYL NP KYIPGTKM FAG+KK+ +R DLI Y+ KA'
p1602
sS'align-len'
p1603
I101
sg34
S'ChainA, Thermodynamic Cycles As Probes Of Structure-Function Relationships In Unfolded Proteins'
p1604
sg36
F97.11538461538461
sS'positive'
p1605
I76
sS'evalue'
p1606
F6.31589e-41
sg39
g60
sS'hit-frame'
p1607
I0
sg42
S'1ytc'
p1608
sS'bit-score'
p1609
F134.42
sS'score'
p1610
F337.0
sg46
I104
sg47
F97.11538461538461
sS'hseq'
p1611
S'GSAKKGATLFKTRCQQCHTIEEGGPNKVGPNLHGIFGRHSGQVKGYSYTDAIINKNVKWDEDSMSEYLTNPXKYIPGTKMAFAGLKKEKDRNDLITYMTKA'
p1612
sS'qseq'
p1613
S'GDVEKGKKIFVQKCAQCHTVEKGGKHKTGPNLHGLFGRKTGQAPGFTYTDANKNKGITWKEETLMEYLENPKKYIPGTKMIFAGIKKKTEREDLIAYLKKA'
p1614
sS'hit-to'
p1615
I110
stp1616
a(F54.54545454545455
F94.23076923076923
(dp1617
g23
F54.54545454545455
sS'query-frame'
p1618
I0
sS'hit-from'
p1619
I2
sS'num'
p1620
g11
sS'gaps'
p1621
I1
sS'query-from'
p1622
I2
sS'query-to'
p1623
I100
sS'identity'
p1624
I54
sS'midline'
p1625
S'D   G+++F Q C  CH++  G K+K GP L+GLFGR +G   GF Y+DANKN GITW EE   EY+ +PK  IPGTKMIFAG+K + +  DLIAY+K+'
p1626
sS'align-len'
p1627
I99
sg34
S'ChainA, Crystal Structure Of Ferrocytochrome C2 From Rhodopseudomonas Viridis'
p1628
sg36
F94.23076923076923
sS'positive'
p1629
I70
sS'evalue'
p1630
F5.22183e-35
sg39
g60
sS'hit-frame'
p1631
I0
sg42
S'1co6'
p1632
sS'bit-score'
p1633
F119.013
sS'score'
p1634
F297.0
sg46
I104
sg47
F94.23076923076923
sS'hseq'
p1635
S'DAASGEQVFKQ-CLVCHSIGPGAKNKVGPVLNGLFGRHSGTIEGFAYSDANKNSGITWTEEVFREYIRDPKAKIPGTKMIFAGVKDEQKVSDLIAYIKQ'
p1636
sS'qseq'
p1637
S'DVEKGKKIFVQKCAQCHTVEKGGKHKTGPNLHGLFGRKTGQAPGFTYTDANKNKGITWKEETLMEYLENPKKYIPGTKMIFAGIKKKTEREDLIAYLKK'
p1638
sS'hit-to'
p1639
I99
stp1640
a(F54.54545454545455
F94.23076923076923
(dp1641
g23
F54.54545454545455
sg1618
I0
sg1619
I2
sg1620
g11
sg1621
I1
sg1622
I2
sg1623
I100
sg1624
I54
sg1625
g1626
sg1627
I99
sg34
S'Chain A, Crystal Structure Of Ferricytochrome C2 From Rhodopseudomonas Viridis'
p1642
sg36
F94.23076923076923
sg1629
I70
sg1630
F5.22183e-35
sg39
g60
sg1631
I0
sg42
S'1io3'
p1643
sg1633
F119.013
sg1634
F297.0
sg46
I104
sg47
F94.23076923076923
sg1635
g1636
sg1637
g1638
sg1639
I99
stp1644
a(F54.54545454545455
F94.23076923076923
(dp1645
g23
F54.54545454545455
sg1618
I0
sg1619
I2
sg1620
g11
sg1621
I1
sg1622
I2
sg1623
I100
sg1624
I54
sg1625
g1626
sg1627
I99
sg34
S'Chain A, Application Of An Automatic Molecular Replacement Procedure To Crystal Structure Of Cytochrome C2 From Rhodopseudomonas Viridis'
p1646
sg36
F94.23076923076923
sg1629
I70
sg1630
F5.22183e-35
sg39
g60
sg1631
I0
sg42
S'1cry'
p1647
sg1633
F119.013
sg1634
F297.0
sg46
I104
sg47
F94.23076923076923
sg1635
g1636
sg1637
g1638
sg1639
I99
stp1648
a(F51.515151515151516
F95.1923076923077
(dp1649
g23
F51.515151515151516
sS'query-frame'
p1650
I0
sS'hit-from'
p1651
I12
sS'num'
p1652
g11
sS'gaps'
p1653
I0
sS'query-from'
p1654
I1
sS'query-to'
p1655
I99
sS'identity'
p1656
I51
sS'midline'
p1657
S'GD  +G+K+F  + AQCHT  +GG +  GPNL+GL GR +G   G+ Y+ AN   G+ W  + L  YLENP K++PGTKM FAG+KK  ER D+IAYL+'
p1658
sS'align-len'
p1659
I99
sg34
S'ChainA, Crithidia Fasciculata Cytochrome C'
p1660
sg36
F95.1923076923077
sS'positive'
p1661
I68
sS'evalue'
p1662
F2.56959e-34
sg39
g60
sS'hit-frame'
p1663
I0
sg42
S'2yk3'
p1664
sS'bit-score'
p1665
F117.472
sS'score'
p1666
F293.0
sg46
I104
sg47
F95.1923076923077
sS'hseq'
p1667
S'GDAARGEKLFKGRAAQCHTANQGGANGVGPNLYGLVGRHSGTIEGYAYSKANAESGVVWTPDVLDVYLENPXKFMPGTKMSFAGMKKPQERADVIAYLE'
p1668
sS'qseq'
p1669
S'GDVEKGKKIFVQKCAQCHTVEKGGKHKTGPNLHGLFGRKTGQAPGFTYTDANKNKGITWKEETLMEYLENPKKYIPGTKMIFAGIKKKTEREDLIAYLK'
p1670
sS'hit-to'
p1671
I110
stp1672
a(F51.515151515151516
F95.1923076923077
(dp1673
g23
F51.515151515151516
sg1650
I0
sg1651
I12
sg1652
g11
sg1653
I0
sg1654
I1
sg1655
I99
sg1656
I51
sg1657
g1658
sg1659
I99
sg34
S'Chain B, Crithidia Fasciculata Cytochrome C'
p1674
sg36
F95.1923076923077
sg1661
I68
sg1662
F2.56959e-34
sg39
g40
sg1663
I0
sg42
S'2yk3'
p1675
sg1665
F117.472
sg1666
F293.0
sg46
I104
sg47
F95.1923076923077
sg1667
g1668
sg1669
g1670
sg1671
I110
stp1676
a(F51.515151515151516
F95.1923076923077
(dp1677
g23
F51.515151515151516
sg1650
I0
sg1651
I12
sg1652
g11
sg1653
I0
sg1654
I1
sg1655
I99
sg1656
I51
sg1657
g1658
sg1659
I99
sg34
S'Chain C, Crithidia Fasciculata Cytochrome C'
p1678
sg36
F95.1923076923077
sg1661
I68
sg1662
F2.56959e-34
sg39
g109
sg1663
I0
sg42
S'2yk3'
p1679
sg1665
F117.472
sg1666
F293.0
sg46
I104
sg47
F95.1923076923077
sg1667
g1668
sg1669
g1670
sg1671
I110
stp1680
a(F50.0
F17.307692307692307
(dp1681
g23
F50.0
sS'query-frame'
p1682
I0
sS'hit-from'
p1683
I33
sS'num'
p1684
g11
sS'gaps'
p1685
I0
sS'query-from'
p1686
I1
sS'query-to'
p1687
I18
sS'identity'
p1688
I9
sS'midline'
p1689
S'GDV  G  +F   CA CH'
p1690
sS'align-len'
p1691
I18
sg34
S'ChainB, Crystal Structure Of The Sulfane Dehydrogenase Soxcd From Paracoccus Pantotrophus'
p1692
sg36
F17.307692307692307
sS'positive'
p1693
I10
sS'evalue'
p1694
F0.680196
sg39
g40
sS'hit-frame'
p1695
I0
sg42
S'2xts'
p1696
sS'bit-score'
p1697
F28.8758
sS'score'
p1698
F63.0
sg46
I104
sg47
F17.307692307692307
sS'hseq'
p1699
S'GDVATGDALFADNCASCH'
p1700
sS'qseq'
p1701
S'GDVEKGKKIFVQKCAQCH'
p1702
sS'hit-to'
p1703
I50
stp1704
a(F50.0
F17.307692307692307
(dp1705
g23
F50.0
sg1682
I0
sg1683
I33
sg1684
g11
sg1685
I0
sg1686
I1
sg1687
I18
sg1688
I9
sg1689
g1690
sg1691
I18
sg34
S'Chain D, Crystal Structure Of The Sulfane Dehydrogenase Soxcd From Paracoccus Pantotrophus'
p1706
sg36
F17.307692307692307
sg1693
I10
sg1694
F0.680196
sg39
g114
sg1695
I0
sg42
S'2xts'
p1707
sg1697
F28.8758
sg1698
F63.0
sg46
I104
sg47
F17.307692307692307
sg1699
g1700
sg1701
g1702
sg1703
I50
stp1708
a(F47.82608695652174
F22.115384615384617
(dp1709
g23
F47.82608695652174
sS'query-frame'
p1710
I0
sS'hit-from'
p1711
I13
sS'num'
p1712
g11
sS'gaps'
p1713
I0
sS'query-from'
p1714
I29
sS'query-to'
p1715
I51
sS'identity'
p1716
I11
sS'midline'
p1717
S'GP L GL   + G+A GF   DA'
p1718
sS'align-len'
p1719
I23
sg34
S'ChainA, High Resolution Structure Of The Apo Form Of The Orange Protein (Orp) From Desulfovibrio Gigas'
p1720
sg36
F22.115384615384617
sS'positive'
p1721
I13
sS'evalue'
p1722
F7.47851
sg39
g60
sS'hit-frame'
p1723
I0
sg42
S'2wfb'
p1724
sS'bit-score'
p1725
F25.7942
sS'score'
p1726
F55.0
sg46
I104
sg47
F22.115384615384617
sS'hseq'
p1727
S'GPGLDGLVDPRFGRAAGFVVVDA'
p1728
sS'qseq'
p1729
S'GPNLHGLFGRKTGQAPGFTYTDA'
p1730
sS'hit-to'
p1731
I35
stp1732
a(F46.42857142857143
F24.03846153846154
(dp1733
g23
F46.42857142857143
sS'query-frame'
p1734
I0
sS'hit-from'
p1735
I28
sS'num'
p1736
g11
sS'gaps'
p1737
I3
sS'query-from'
p1738
I5
sS'query-to'
p1739
I32
sS'identity'
p1740
I13
sS'midline'
p1741
S'+GK++F   CA CH    GG  KT P+L'
p1742
sS'align-len'
p1743
I28
sg34
S'ChainV, Crystal Structure Of Photosystem Ii'
p1744
sg36
F24.03846153846154
sS'positive'
p1745
I17
sS'evalue'
p1746
F0.433668
sg39
S'V'
p1747
sS'hit-frame'
p1748
I0
sg42
S'1izl'
p1749
sS'bit-score'
p1750
F29.261
sS'score'
p1751
F64.0
sg46
I104
sg47
F24.03846153846154
sS'hseq'
p1752
S'EGKRLFQYACASCHV---GGITKTNPSL'
p1753
sS'qseq'
p1754
S'KGKKIFVQKCAQCHTVEKGGKHKTGPNL'
p1755
sS'hit-to'
p1756
I52
stp1757
a(F46.42857142857143
F24.03846153846154
(dp1758
g23
F46.42857142857143
sg1734
I0
sg1735
I28
sg1736
g11
sg1737
I3
sg1738
I5
sg1739
I32
sg1740
I13
sg1741
g1742
sg1743
I28
sg34
S'Chain 0, Crystal Structure Of Photosystem Ii'
p1759
sg36
F24.03846153846154
sg1745
I17
sg1746
F0.433668
sg39
S'0'
p1760
sg1748
I0
sg42
S'1izl'
p1761
sg1750
F29.261
sg1751
F64.0
sg46
I104
sg47
F24.03846153846154
sg1752
g1753
sg1754
g1755
sg1756
I52
stp1762
a(F46.42857142857143
F24.03846153846154
(dp1763
g23
F46.42857142857143
sg1734
I0
sg1735
I28
sg1736
g11
sg1737
I3
sg1738
I5
sg1739
I32
sg1740
I13
sg1741
g1742
sg1743
I28
sg34
S'Chain A, Crystal Structure Of Cytochrome C550 From Thermosynechococcus Elongatus'
p1764
sg36
F24.03846153846154
sg1745
I17
sg1746
F0.433668
sg39
g60
sg1748
I0
sg42
S'1mz4'
p1765
sg1750
F29.261
sg1751
F64.0
sg46
I104
sg47
F24.03846153846154
sg1752
g1753
sg1754
g1755
sg1756
I52
stp1766
a(F46.42857142857143
F24.03846153846154
(dp1767
g23
F46.42857142857143
sg1734
I0
sg1735
I28
sg1736
g11
sg1737
I3
sg1738
I5
sg1739
I32
sg1740
I13
sg1741
g1742
sg1743
I28
sg34
S'Chain V, Architecture Of The Photosynthetic Oxygen Evolving Center'
p1768
sg36
F24.03846153846154
sg1745
I17
sg1746
F0.433668
sg39
g1747
sg1748
I0
sg42
S'1s5l'
p1769
sg1750
F29.261
sg1751
F64.0
sg46
I104
sg47
F24.03846153846154
sg1752
g1753
sg1754
g1755
sg1756
I52
stp1770
a(F46.42857142857143
F24.03846153846154
(dp1771
g23
F46.42857142857143
sg1734
I0
sg1735
I28
sg1736
g11
sg1737
I3
sg1738
I5
sg1739
I32
sg1740
I13
sg1741
g1742
sg1743
I28
sg34
S'VChain v, Architecture Of The Photosynthetic Oxygen Evolving Center'
p1772
sg36
F24.03846153846154
sg1745
I17
sg1746
F0.433668
sg39
g1747
sg1748
I0
sg42
S'1s5l'
p1773
sg1750
F29.261
sg1751
F64.0
sg46
I104
sg47
F24.03846153846154
sg1752
g1753
sg1754
g1755
sg1756
I52
stp1774
a(F46.42857142857143
F24.03846153846154
(dp1775
g23
F46.42857142857143
sg1734
I0
sg1735
I28
sg1736
g11
sg1737
I3
sg1738
I5
sg1739
I32
sg1740
I13
sg1741
g1742
sg1743
I28
sg34
S'Chain V, Crystal Structure Of Photosystem Ii From Thermosynechococcus Elongatus'
p1776
sg36
F24.03846153846154
sg1745
I17
sg1746
F0.433668
sg39
g1747
sg1748
I0
sg42
S'2axt'
p1777
sg1750
F29.261
sg1751
F64.0
sg46
I104
sg47
F24.03846153846154
sg1752
g1753
sg1754
g1755
sg1756
I52
stp1778
a(F46.42857142857143
F24.03846153846154
(dp1779
g23
F46.42857142857143
sg1734
I0
sg1735
I28
sg1736
g11
sg1737
I3
sg1738
I5
sg1739
I32
sg1740
I13
sg1741
g1742
sg1743
I28
sg34
S'VChain v, Crystal Structure Of Photosystem Ii From Thermosynechococcus Elongatus'
p1780
sg36
F24.03846153846154
sg1745
I17
sg1746
F0.433668
sg39
g1747
sg1748
I0
sg42
S'2axt'
p1781
sg1750
F29.261
sg1751
F64.0
sg46
I104
sg47
F24.03846153846154
sg1752
g1753
sg1754
g1755
sg1756
I52
stp1782
a(F46.42857142857143
F24.03846153846154
(dp1783
g23
F46.42857142857143
sg1734
I0
sg1735
I28
sg1736
g11
sg1737
I3
sg1738
I5
sg1739
I32
sg1740
I13
sg1741
g1742
sg1743
I28
sg34
S'Chain V, Crystal Structure Of Cyanobacterial Photosystem Ii (Part 1 Of 2). This File Contains First Monomer Of Psii Dimer'
p1784
sg36
F24.03846153846154
sg1745
I17
sg1746
F0.433668
sg39
g1747
sg1748
I0
sg42
S'3bz1'
p1785
sg1750
F29.261
sg1751
F64.0
sg46
I104
sg47
F24.03846153846154
sg1752
g1753
sg1754
g1755
sg1756
I52
stp1786
a(F46.42857142857143
F24.03846153846154
(dp1787
g23
F46.42857142857143
sg1734
I0
sg1735
I28
sg1736
g11
sg1737
I3
sg1738
I5
sg1739
I32
sg1740
I13
sg1741
g1742
sg1743
I28
sg34
S'Chain V, Crystal Structure Of Cyanobacterial Photosystem Ii (Part 2 Of 2). This File Contains Second Monomer Of Psii Dimer'
p1788
sg36
F24.03846153846154
sg1745
I17
sg1746
F0.433668
sg39
g1747
sg1748
I0
sg42
S'3bz2'
p1789
sg1750
F29.261
sg1751
F64.0
sg46
I104
sg47
F24.03846153846154
sg1752
g1753
sg1754
g1755
sg1756
I52
stp1790
a(F46.42857142857143
F24.03846153846154
(dp1791
g23
F46.42857142857143
sg1734
I0
sg1735
I28
sg1736
g11
sg1737
I3
sg1738
I5
sg1739
I32
sg1740
I13
sg1741
g1742
sg1743
I28
sg34
S'Chain V, Crystal Structure Of Br-Substituted Photosystem Ii Complex'
p1792
sg36
F24.03846153846154
sg1745
I17
sg1746
F0.433668
sg39
g1747
sg1748
I0
sg42
S'3a0b'
p1793
sg1750
F29.261
sg1751
F64.0
sg46
I104
sg47
F24.03846153846154
sg1752
g1753
sg1754
g1755
sg1756
I52
stp1794
a(F46.42857142857143
F24.03846153846154
(dp1795
g23
F46.42857142857143
sg1734
I0
sg1735
I28
sg1736
g11
sg1737
I3
sg1738
I5
sg1739
I32
sg1740
I13
sg1741
g1742
sg1743
I28
sg34
S'VChain v, Crystal Structure Of Br-Substituted Photosystem Ii Complex'
p1796
sg36
F24.03846153846154
sg1745
I17
sg1746
F0.433668
sg39
g1747
sg1748
I0
sg42
S'3a0b'
p1797
sg1750
F29.261
sg1751
F64.0
sg46
I104
sg47
F24.03846153846154
sg1752
g1753
sg1754
g1755
sg1756
I52
stp1798
a(F46.42857142857143
F24.03846153846154
(dp1799
g23
F46.42857142857143
sg1734
I0
sg1735
I28
sg1736
g11
sg1737
I3
sg1738
I5
sg1739
I32
sg1740
I13
sg1741
g1742
sg1743
I28
sg34
S'Chain V, Crystal Structure Of I-Substituted Photosystem Ii Complex'
p1800
sg36
F24.03846153846154
sg1745
I17
sg1746
F0.433668
sg39
g1747
sg1748
I0
sg42
S'3a0h'
p1801
sg1750
F29.261
sg1751
F64.0
sg46
I104
sg47
F24.03846153846154
sg1752
g1753
sg1754
g1755
sg1756
I52
stp1802
a(F46.42857142857143
F24.03846153846154
(dp1803
g23
F46.42857142857143
sg1734
I0
sg1735
I28
sg1736
g11
sg1737
I3
sg1738
I5
sg1739
I32
sg1740
I13
sg1741
g1742
sg1743
I28
sg34
S'VChain v, Crystal Structure Of I-Substituted Photosystem Ii Complex'
p1804
sg36
F24.03846153846154
sg1745
I17
sg1746
F0.433668
sg39
g1747
sg1748
I0
sg42
S'3a0h'
p1805
sg1750
F29.261
sg1751
F64.0
sg46
I104
sg47
F24.03846153846154
sg1752
g1753
sg1754
g1755
sg1756
I52
stp1806
a(F46.42857142857143
F24.03846153846154
(dp1807
g23
F46.42857142857143
sg1734
I0
sg1735
I28
sg1736
g11
sg1737
I3
sg1738
I5
sg1739
I32
sg1740
I13
sg1741
g1742
sg1743
I28
sg34
S'Chain V, Crystal Structure Of Monomeric Form Of Cyanobacterial Photosystem Ii'
p1808
sg36
F24.03846153846154
sg1745
I17
sg1746
F0.433668
sg39
g1747
sg1748
I0
sg42
S'3kzi'
p1809
sg1750
F29.261
sg1751
F64.0
sg46
I104
sg47
F24.03846153846154
sg1752
g1753
sg1754
g1755
sg1756
I52
stp1810
a(F46.42857142857143
F24.03846153846154
(dp1811
g23
F46.42857142857143
sg1734
I0
sg1735
I28
sg1736
g11
sg1737
I3
sg1738
I5
sg1739
I32
sg1740
I13
sg1741
g1742
sg1743
I28
sg34
S'Chain V, Crystal Structure Of Cyanobacterial Photosystem Ii In Complex With Terbutryn (Part 1 Of 2). This File Contains First Monomer Of Psii Dimer'
p1812
sg36
F24.03846153846154
sg1745
I17
sg1746
F0.433668
sg39
g1747
sg1748
I0
sg42
S'3prq'
p1813
sg1750
F29.261
sg1751
F64.0
sg46
I104
sg47
F24.03846153846154
sg1752
g1753
sg1754
g1755
sg1756
I52
stp1814
a(F46.42857142857143
F24.03846153846154
(dp1815
g23
F46.42857142857143
sg1734
I0
sg1735
I28
sg1736
g11
sg1737
I3
sg1738
I5
sg1739
I32
sg1740
I13
sg1741
g1742
sg1743
I28
sg34
S'Chain V, Crystal Structure Of Cyanobacterial Photosystem Ii In Complex With Terbutryn (Part 2 Of 2). This File Contains Second Monomer Of Psii Dimer'
p1816
sg36
F24.03846153846154
sg1745
I17
sg1746
F0.433668
sg39
g1747
sg1748
I0
sg42
S'3prr'
p1817
sg1750
F29.261
sg1751
F64.0
sg46
I104
sg47
F24.03846153846154
sg1752
g1753
sg1754
g1755
sg1756
I52
stp1818
a(F46.42857142857143
F24.03846153846154
(dp1819
g23
F46.42857142857143
sg1734
I0
sg1735
I28
sg1736
g11
sg1737
I3
sg1738
I5
sg1739
I32
sg1740
I13
sg1741
g1742
sg1743
I28
sg34
S'Chain V, Crystal Structure Of Oxygen-Evolving Photosystem Ii At 1.9 Angstrom Resolution'
p1820
sg36
F24.03846153846154
sg1745
I17
sg1746
F0.433668
sg39
g1747
sg1748
I0
sg42
S'3arc'
p1821
sg1750
F29.261
sg1751
F64.0
sg46
I104
sg47
F24.03846153846154
sg1752
g1753
sg1754
g1755
sg1756
I52
stp1822
a(F46.42857142857143
F24.03846153846154
(dp1823
g23
F46.42857142857143
sg1734
I0
sg1735
I28
sg1736
g11
sg1737
I3
sg1738
I5
sg1739
I32
sg1740
I13
sg1741
g1742
sg1743
I28
sg34
S'VChain v, Crystal Structure Of Oxygen-Evolving Photosystem Ii At 1.9 Angstrom Resolution'
p1824
sg36
F24.03846153846154
sg1745
I17
sg1746
F0.433668
sg39
g1747
sg1748
I0
sg42
S'3arc'
p1825
sg1750
F29.261
sg1751
F64.0
sg46
I104
sg47
F24.03846153846154
sg1752
g1753
sg1754
g1755
sg1756
I52
stp1826
a(F46.42857142857143
F24.03846153846154
(dp1827
g23
F46.42857142857143
sg1734
I0
sg1735
I28
sg1736
g11
sg1737
I3
sg1738
I5
sg1739
I32
sg1740
I13
sg1741
g1742
sg1743
I28
sg34
S'Chain V, Fs X-Ray Diffraction Of Photosystem Ii'
p1828
sg36
F24.03846153846154
sg1745
I17
sg1746
F0.433668
sg39
g1747
sg1748
I0
sg42
S'4fby'
p1829
sg1750
F29.261
sg1751
F64.0
sg46
I104
sg47
F24.03846153846154
sg1752
g1753
sg1754
g1755
sg1756
I52
stp1830
a(F46.42857142857143
F24.03846153846154
(dp1831
g23
F46.42857142857143
sg1734
I0
sg1735
I28
sg1736
g11
sg1737
I3
sg1738
I5
sg1739
I32
sg1740
I13
sg1741
g1742
sg1743
I28
sg34
S'IChain i, Fs X-Ray Diffraction Of Photosystem Ii'
p1832
sg36
F24.03846153846154
sg1745
I17
sg1746
F0.433668
sg39
g266
sg1748
I0
sg42
S'4fby'
p1833
sg1750
F29.261
sg1751
F64.0
sg46
I104
sg47
F24.03846153846154
sg1752
g1753
sg1754
g1755
sg1756
I52
stp1834
a(F46.42857142857143
F24.03846153846154
(dp1835
g23
F46.42857142857143
sg1734
I0
sg1735
I28
sg1736
g11
sg1737
I3
sg1738
I5
sg1739
I32
sg1740
I13
sg1741
g1742
sg1743
I28
sg34
S'Chain V, Structure Of Sr-substituted Photosystem Ii'
p1836
sg36
F24.03846153846154
sg1745
I17
sg1746
F0.433668
sg39
g1747
sg1748
I0
sg42
S'4il6'
p1837
sg1750
F29.261
sg1751
F64.0
sg46
I104
sg47
F24.03846153846154
sg1752
g1753
sg1754
g1755
sg1756
I52
stp1838
a(F46.42857142857143
F24.03846153846154
(dp1839
g23
F46.42857142857143
sg1734
I0
sg1735
I28
sg1736
g11
sg1737
I3
sg1738
I5
sg1739
I32
sg1740
I13
sg1741
g1742
sg1743
I28
sg34
S'VChain v, Structure Of Sr-substituted Photosystem Ii'
p1840
sg36
F24.03846153846154
sg1745
I17
sg1746
F0.433668
sg39
g1747
sg1748
I0
sg42
S'4il6'
p1841
sg1750
F29.261
sg1751
F64.0
sg46
I104
sg47
F24.03846153846154
sg1752
g1753
sg1754
g1755
sg1756
I52
stp1842
a(F46.42857142857143
F24.03846153846154
(dp1843
g23
F46.42857142857143
sS'query-frame'
p1844
I0
sS'hit-from'
p1845
I54
sS'num'
p1846
g11
sS'gaps'
p1847
I3
sS'query-from'
p1848
I5
sS'query-to'
p1849
I32
sS'identity'
p1850
I13
sS'midline'
p1851
S'+GK++F   CA CH    GG  KT P+L'
p1852
sS'align-len'
p1853
I28
sg34
S'ChainT, Photosystem Ii From Thermosynechococcus Elongatus'
p1854
sg36
F24.03846153846154
sS'positive'
p1855
I17
sS'evalue'
p1856
F0.570419
sg39
S'T'
p1857
sS'hit-frame'
p1858
I0
sg42
S'1w5c'
p1859
sS'bit-score'
p1860
F28.8758
sS'score'
p1861
F63.0
sg46
I104
sg47
F24.03846153846154
sS'hseq'
p1862
S'EGKRLFQYACASCHV---GGITKTNPSL'
p1863
sS'qseq'
p1864
S'KGKKIFVQKCAQCHTVEKGGKHKTGPNL'
p1865
sS'hit-to'
p1866
I78
stp1867
a(F46.42857142857143
F24.03846153846154
(dp1868
g23
F46.42857142857143
sg1844
I0
sg1845
I54
sg1846
g11
sg1847
I3
sg1848
I5
sg1849
I32
sg1850
I13
sg1851
g1852
sg1853
I28
sg34
S'Chain V, Photosystem Ii From Thermosynechococcus Elongatus'
p1869
sg36
F24.03846153846154
sg1855
I17
sg1856
F0.570419
sg39
g1747
sg1858
I0
sg42
S'1w5c'
p1870
sg1860
F28.8758
sg1861
F63.0
sg46
I104
sg47
F24.03846153846154
sg1862
g1863
sg1864
g1865
sg1866
I78
stp1871
a(F46.42857142857143
F24.03846153846154
(dp1872
g23
F46.42857142857143
sg1844
I0
sg1845
I54
sg1846
g11
sg1847
I3
sg1848
I5
sg1849
I32
sg1850
I13
sg1851
g1852
sg1853
I28
sg34
S'Chain V, Rt Fs X-ray Diffraction Of Photosystem Ii, Dark State'
p1873
sg36
F24.03846153846154
sg1855
I17
sg1856
F0.570419
sg39
g1747
sg1858
I0
sg42
S'4ixq'
p1874
sg1860
F28.8758
sg1861
F63.0
sg46
I104
sg47
F24.03846153846154
sg1862
g1863
sg1864
g1865
sg1866
I78
stp1875
a(F46.42857142857143
F24.03846153846154
(dp1876
g23
F46.42857142857143
sg1844
I0
sg1845
I54
sg1846
g11
sg1847
I3
sg1848
I5
sg1849
I32
sg1850
I13
sg1851
g1852
sg1853
I28
sg34
S'VChain v, Rt Fs X-ray Diffraction Of Photosystem Ii, Dark State'
p1877
sg36
F24.03846153846154
sg1855
I17
sg1856
F0.570419
sg39
g1747
sg1858
I0
sg42
S'4ixq'
p1878
sg1860
F28.8758
sg1861
F63.0
sg46
I104
sg47
F24.03846153846154
sg1862
g1863
sg1864
g1865
sg1866
I78
stp1879
a(F46.42857142857143
F24.03846153846154
(dp1880
g23
F46.42857142857143
sg1844
I0
sg1845
I54
sg1846
g11
sg1847
I3
sg1848
I5
sg1849
I32
sg1850
I13
sg1851
g1852
sg1853
I28
sg34
S'Chain V, Rt Fs X-ray Diffraction Of Photosystem Ii, First Illuminated State'
p1881
sg36
F24.03846153846154
sg1855
I17
sg1856
F0.570419
sg39
g1747
sg1858
I0
sg42
S'4ixr'
p1882
sg1860
F28.8758
sg1861
F63.0
sg46
I104
sg47
F24.03846153846154
sg1862
g1863
sg1864
g1865
sg1866
I78
stp1883
a(F46.42857142857143
F24.03846153846154
(dp1884
g23
F46.42857142857143
sg1844
I0
sg1845
I54
sg1846
g11
sg1847
I3
sg1848
I5
sg1849
I32
sg1850
I13
sg1851
g1852
sg1853
I28
sg34
S'VChain v, Rt Fs X-ray Diffraction Of Photosystem Ii, First Illuminated State'
p1885
sg36
F24.03846153846154
sg1855
I17
sg1856
F0.570419
sg39
g1747
sg1858
I0
sg42
S'4ixr'
p1886
sg1860
F28.8758
sg1861
F63.0
sg46
I104
sg47
F24.03846153846154
sg1862
g1863
sg1864
g1865
sg1866
I78
stp1887
a(F46.15384615384615
F22.115384615384617
(dp1888
g23
F46.15384615384615
sS'query-frame'
p1889
I0
sS'hit-from'
p1890
I1
sS'num'
p1891
g11
sS'gaps'
p1892
I3
sS'query-from'
p1893
I1
sS'query-to'
p1894
I26
sS'identity'
p1895
I12
sS'midline'
p1896
S' D   G KIF   CA CH    GGK+'
p1897
sS'align-len'
p1898
I26
sg34
S'ChainA, Mutant M58h Of Nostoc Sp Cytochrome C6'
p1899
sg36
F22.115384615384617
sS'positive'
p1900
I13
sS'evalue'
p1901
F7.56394
sg39
g60
sS'hit-frame'
p1902
I0
sg42
S'4h0k'
p1903
sS'bit-score'
p1904
F25.409
sS'score'
p1905
F54.0
sg46
I104
sg47
F22.115384615384617
sS'hseq'
p1906
S'ADSVNGAKIFSANCASCHA---GGKN'
p1907
sS'qseq'
p1908
S'GDVEKGKKIFVQKCAQCHTVEKGGKH'
p1909
sS'hit-to'
p1910
I23
stp1911
a(F46.15384615384615
F22.115384615384617
(dp1912
g23
F46.15384615384615
sg1889
I0
sg1890
I1
sg1891
g11
sg1892
I3
sg1893
I1
sg1894
I26
sg1895
I12
sg1896
g1897
sg1898
I26
sg34
S'Chain B, Mutant M58h Of Nostoc Sp Cytochrome C6'
p1913
sg36
F22.115384615384617
sg1900
I13
sg1901
F7.56394
sg39
g40
sg1902
I0
sg42
S'4h0k'
p1914
sg1904
F25.409
sg1905
F54.0
sg46
I104
sg47
F22.115384615384617
sg1906
g1907
sg1908
g1909
sg1910
I23
stp1915
a(F46.0
F90.38461538461539
(dp1916
g23
F46.0
sS'query-frame'
p1917
I0
sS'hit-from'
p1918
I3
sS'num'
p1919
g11
sS'gaps'
p1920
I27
sS'query-from'
p1921
I1
sS'query-to'
p1922
I100
sS'identity'
p1923
I46
sS'midline'
p1924
S'GD  KG+K F  KC  CH V+        KGGK  TGPNL+G+ GRK     GF Y D     A KN  + W E  L+EY+ +PK ++          TKM F   K    + D++A+L +'
p1925
sS'align-len'
p1926
I121
sg34
S'ChainX, X-Ray Structure Of Ferric Cytochrome C-550 From Paracoccus Versutus'
p1927
sg36
F90.38461538461539
sS'positive'
p1928
I61
sS'evalue'
p1929
F9.88897e-15
sg39
S'X'
p1930
sS'hit-frame'
p1931
I0
sg42
S'2bgv'
p1932
sS'bit-score'
p1933
F66.6254
sS'score'
p1934
F161.0
sg46
I104
sg47
F90.38461538461539
sS'hseq'
p1935
S'GDAAKGEKEF-NKCKACHMVQAPDGTDIVKGGK--TGPNLYGVVGRKIASVEGFKYGDGILEVAEKNPDMVWSEADLIEYVTDPKPWLVEKTGDSAAKTKMTF---KLGKNQADVVAFLAQ'
p1936
sS'qseq'
p1937
S'GDVEKGKKIFVQKCAQCHTVE--------KGGKHKTGPNLHGLFGRKTGQAPGFTYTD-----ANKNKGITWKEETLMEYLENPKKYI--------PGTKMIFAGIKKKTEREDLIAYLKK'
p1938
sS'hit-to'
p1939
I117
stp1940
a(F45.91836734693877
F88.46153846153847
(dp1941
g23
F45.91836734693877
sS'query-frame'
p1942
I0
sS'hit-from'
p1943
I4
sS'num'
p1944
g11
sS'gaps'
p1945
I26
sS'query-from'
p1946
I1
sS'query-to'
p1947
I98
sS'identity'
p1948
I45
sS'midline'
p1949
S'GD  KG+K F  KC  CH ++       KGGK  TGPNL+G+ GRK     GF Y +     A KN  +TW E  L+EY+ +PK  +          TKM F   K    + D++A+L'
p1950
sS'align-len'
p1951
I118
sg34
S'ChainA, The Structure Of Paracoccus Denitrificans Cytochrome C550'
p1952
sg36
F88.46153846153847
sS'positive'
p1953
I60
sS'evalue'
p1954
F6.39979e-14
sg39
g60
sS'hit-frame'
p1955
I0
sg42
S'155c'
p1956
sS'bit-score'
p1957
F64.6994
sS'score'
p1958
F156.0
sg46
I104
sg47
F88.46153846153847
sS'hseq'
p1959
S'GDAAKGEKEF-NKCKACHMIQAPDGTDIKGGK--TGPNLYGVVGRKIASEEGFKYGEGILEVAEKNPDLTWTEANLIEYVTDPKPLVKKMTDDKGAKTKMTF---KMGKNQADVVAFL'
p1960
sS'qseq'
p1961
S'GDVEKGKKIFVQKCAQCHTVE-------KGGKHKTGPNLHGLFGRKTGQAPGFTYTD-----ANKNKGITWKEETLMEYLENPKKYI--------PGTKMIFAGIKKKTEREDLIAYL'
p1962
sS'hit-to'
p1963
I115
stp1964
a(F45.45454545454545
F91.34615384615384
(dp1965
g23
F45.45454545454545
sS'query-frame'
p1966
I0
sS'hit-from'
p1967
I2
sS'num'
p1968
g11
sS'gaps'
p1969
I5
sS'query-from'
p1970
I1
sS'query-to'
p1971
I99
sS'identity'
p1972
I45
sS'midline'
p1973
S'GD   G+K F   C  CH  EK G    GP L G+ G K G+ A G+ ++DA K  G+TW +  L ++L +PKK +PGTKM+F GI    + +D+IAYLK'
p1974
sS'align-len'
p1975
I100
sg34
S'ChainA, Cytochrome Ch From Methylobacterium Extorquens'
p1976
sg36
F91.34615384615384
sS'positive'
p1977
I61
sS'evalue'
p1978
F1.45399e-23
sg39
g60
sS'hit-frame'
p1979
I0
sg42
S'1qn2'
p1980
sS'bit-score'
p1981
F89.3521
sS'score'
p1982
F220.0
sg46
I104
sg47
F91.34615384615384
sS'hseq'
p1983
S'GDAAAGEKAFAP-CKACHNFEKNG---VGPTLKGVVGAKAGEGADGYAFSDALKKSGLTWDQADLKQWLADPKKKVPGTKMVFPGISDPKKVDDIIAYLK'
p1984
sS'qseq'
p1985
S'GDVEKGKKIFVQKCAQCHTVEKGGKHKTGPNLHGLFGRKTGQ-APGFTYTDANKNKGITWKEETLMEYLENPKKYIPGTKMIFAGIKKKTEREDLIAYLK'
p1986
sS'hit-to'
p1987
I97
stp1988
a(F45.45454545454545
F91.34615384615384
(dp1989
g23
F45.45454545454545
sg1966
I0
sg1967
I2
sg1968
g11
sg1969
I5
sg1970
I1
sg1971
I99
sg1972
I45
sg1973
g1974
sg1975
I100
sg34
S'Chain B, Cytochrome Ch From Methylobacterium Extorquens'
p1990
sg36
F91.34615384615384
sg1977
I61
sg1978
F1.45399e-23
sg39
g40
sg1979
I0
sg42
S'1qn2'
p1991
sg1981
F89.3521
sg1982
F220.0
sg46
I104
sg47
F91.34615384615384
sg1983
g1984
sg1985
g1986
sg1987
I97
stp1992
a(F45.45454545454545
F91.34615384615384
(dp1993
g23
F45.45454545454545
sg1966
I0
sg1967
I2
sg1968
g11
sg1969
I5
sg1970
I1
sg1971
I99
sg1972
I45
sg1973
g1974
sg1975
I100
sg34
S'Chain C, Cytochrome Ch From Methylobacterium Extorquens'
p1994
sg36
F91.34615384615384
sg1977
I61
sg1978
F1.45399e-23
sg39
g109
sg1979
I0
sg42
S'1qn2'
p1995
sg1981
F89.3521
sg1982
F220.0
sg46
I104
sg47
F91.34615384615384
sg1983
g1984
sg1985
g1986
sg1987
I97
stp1996
a(F45.0
F93.26923076923077
(dp1997
g23
F45.0
sS'query-frame'
p1998
I0
sS'hit-from'
p1999
I3
sS'num'
p2000
g11
sS'gaps'
p2001
I21
sS'query-from'
p2002
I1
sS'query-to'
p2003
I100
sS'identity'
p2004
I45
sS'midline'
p2005
S'GD  KG+K F  KC  CH V+        KGGK  TGPNL+G+ GRK     GF Y D     A KN  + W E  L+EY+ +PK ++       A   KKT      + D++A+L +'
p2006
sS'align-len'
p2007
I118
sg34
S'ChainX, X-Ray Structure Of The M100k Variant Of Ferric Cyt C-550 From Paracoccus Versutus Determined At 100 K.'
p2008
sg36
F93.26923076923077
sS'positive'
p2009
I60
sS'evalue'
p2010
F1.53094e-14
sg39
g1930
sS'hit-frame'
p2011
I0
sg42
S'2bh4'
p2012
sS'bit-score'
p2013
F66.2402
sS'score'
p2014
F160.0
sg46
I104
sg47
F93.26923076923077
sS'hseq'
p2015
S'GDAAKGEKEF-NKCKACHMVQAPDGTDIVKGGK--TGPNLYGVVGRKIASVEGFKYGDGILEVAEKNPDMVWSEADLIEYVTDPKPWLVEKTGDSAAKTKKTFKLGKNQADVVAFLAQ'
p2016
sS'qseq'
p2017
S'GDVEKGKKIFVQKCAQCHTVE--------KGGKHKTGPNLHGLFGRKTGQAPGFTYTD-----ANKNKGITWKEETLMEYLENPKKYIPGTKMIFAGIKKKT-----EREDLIAYLKK'
p2018
sS'hit-to'
p2019
I117
stp2020
a(F45.0
F93.26923076923077
(dp2021
g23
F45.0
sg1998
I0
sg1999
I3
sg2000
g11
sg2001
I21
sg2002
I1
sg2003
I100
sg2004
I45
sg2005
g2006
sg2007
I118
sg34
S'Chain X, X-Ray Structure Of The M100k Variant Of Ferric Cyt C-550 From Paracoccus Versutus Determined At 295 K.'
p2022
sg36
F93.26923076923077
sg2009
I60
sg2010
F1.53094e-14
sg39
g1930
sg2011
I0
sg42
S'2bh5'
p2023
sg2013
F66.2402
sg2014
F160.0
sg46
I104
sg47
F93.26923076923077
sg2015
g2016
sg2017
g2018
sg2019
I117
stp2024
a(F45.0
F90.38461538461539
(dp2025
g23
F45.0
sS'query-frame'
p2026
I0
sS'hit-from'
p2027
I3
sS'num'
p2028
g11
sS'gaps'
p2029
I27
sS'query-from'
p2030
I1
sS'query-to'
p2031
I100
sS'identity'
p2032
I45
sS'midline'
p2033
S'GD  KG+K F  KC  CH ++        KGGK  TGPNL+G+ GRK     GF Y +     A KN  +TW E  L+EY+ +PK ++          TKM F   K    + D++A+L +'
p2034
sS'align-len'
p2035
I121
sg34
S'ChainA, X-Ray Structure Of The Cytochrome C2 Isolated From Paracoccus Denitrificans Refined To 1.7 Angstroms Resolution'
p2036
sg36
F90.38461538461539
sS'positive'
p2037
I62
sS'evalue'
p2038
F3.93873e-14
sg39
g60
sS'hit-frame'
p2039
I0
sg42
S'1cot'
p2040
sS'bit-score'
p2041
F65.0846
sS'score'
p2042
F157.0
sg46
I104
sg47
F90.38461538461539
sS'hseq'
p2043
S'GDAAKGEKEF-NKCKACHMIQAPDGTDIIKGGK--TGPNLYGVVGRKIASEEGFKYGEGILEVAEKNPDLTWTEADLIEYVTDPKPWLVKMTDDKGAKTKMTF---KMGKNQADVVAFLAQ'
p2044
sS'qseq'
p2045
S'GDVEKGKKIFVQKCAQCHTVE--------KGGKHKTGPNLHGLFGRKTGQAPGFTYTD-----ANKNKGITWKEETLMEYLENPKKYI--------PGTKMIFAGIKKKTEREDLIAYLKK'
p2046
sS'hit-to'
p2047
I117
stp2048
a(F44.44444444444444
F94.23076923076923
(dp2049
g23
F44.44444444444444
sS'query-frame'
p2050
I0
sS'hit-from'
p2051
I6
sS'num'
p2052
g11
sS'gaps'
p2053
I1
sS'query-from'
p2054
I1
sS'query-to'
p2055
I99
sS'identity'
p2056
I44
sS'midline'
p2057
S'GD  +GK +F   C  CHT  KG  +K GP+L+G+ GR +G  PG+ Y++AN   GI W  + L +Y+E+P+K +PGTKM + G     +R D+IAYL+'
p2058
sS'align-len'
p2059
I99
sg34
S'ChainA, Molecular Structure Of A High Potential Cytochrome C2 Isolated From Rhodopila Globiformis'
p2060
sg36
F94.23076923076923
sS'positive'
p2061
I64
sS'evalue'
p2062
F1.0059e-25
sg39
g60
sS'hit-frame'
p2063
I0
sg42
S'1hro'
p2064
sS'bit-score'
p2065
F95.1301
sS'score'
p2066
F235.0
sg46
I104
sg47
F94.23076923076923
sS'hseq'
p2067
S'GDPVEGKHLFHTICITCHTDIKGA-NKVGPSLYGVVGRHSGIEPGYNYSEANIKSGIVWTPDVLFKYIEHPQKIVPGTKMGYPGQPDPQKRADIIAYLE'
p2068
sS'qseq'
p2069
S'GDVEKGKKIFVQKCAQCHTVEKGGKHKTGPNLHGLFGRKTGQAPGFTYTDANKNKGITWKEETLMEYLENPKKYIPGTKMIFAGIKKKTEREDLIAYLK'
p2070
sS'hit-to'
p2071
I103
stp2072
a(F44.44444444444444
F94.23076923076923
(dp2073
g23
F44.44444444444444
sg2050
I0
sg2051
I6
sg2052
g11
sg2053
I1
sg2054
I1
sg2055
I99
sg2056
I44
sg2057
g2058
sg2059
I99
sg34
S'Chain B, Molecular Structure Of A High Potential Cytochrome C2 Isolated From Rhodopila Globiformis'
p2074
sg36
F94.23076923076923
sg2061
I64
sg2062
F1.0059e-25
sg39
g40
sg2063
I0
sg42
S'1hro'
p2075
sg2065
F95.1301
sg2066
F235.0
sg46
I104
sg47
F94.23076923076923
sg2067
g2068
sg2069
g2070
sg2071
I103
stp2076
a(F43.87755102040816
F91.34615384615384
(dp2077
g23
F43.87755102040816
sS'query-frame'
p2078
I0
sS'hit-from'
p2079
I3
sS'num'
p2080
g11
sS'gaps'
p2081
I3
sS'query-from'
p2082
I2
sS'query-to'
p2083
I99
sS'identity'
p2084
I43
sS'midline'
p2085
S'D   G+K+F  KC  CH ++  G    GP+L+G+ GR      GF Y+D  K  G  W  E L E+L NPK  + GTKM FAG+ K  +R +LIAYL+'
p2086
sS'align-len'
p2087
I98
sg34
S'ChainA, Solution Structure Of The Functional Domain Of Paracoccus Denitrificans Cytochrome C552 In The Reduced State'
p2088
sg36
F91.34615384615384
sS'positive'
p2089
I57
sS'evalue'
p2090
F1.25139e-21
sg39
g60
sS'hit-frame'
p2091
I0
sg42
S'1c7m'
p2092
sS'bit-score'
p2093
F84.3445
sS'score'
p2094
F207.0
sg46
I104
sg47
F91.34615384615384
sS'hseq'
p2095
S'DPAAGEKVF-GKCKACHKLD--GNDGVGPHLNGVVGRTVAGVDGFNYSDPMKAHGGDWTPEALQEFLTNPKAVVKGTKMAFAGLPKIEDRANLIAYLE'
p2096
sS'qseq'
p2097
S'DVEKGKKIFVQKCAQCHTVEKGGKHKTGPNLHGLFGRKTGQAPGFTYTDANKNKGITWKEETLMEYLENPKKYIPGTKMIFAGIKKKTEREDLIAYLK'
p2098
sS'hit-to'
p2099
I97
stp2100
a(F43.87755102040816
F91.34615384615384
(dp2101
g23
F43.87755102040816
sg2078
I0
sg2079
I3
sg2080
g11
sg2081
I3
sg2082
I2
sg2083
I99
sg2084
I43
sg2085
g2086
sg2087
I98
sg34
S'Chain A, Solution Structure Of The Functional Domain Of Paracoccus Denitrificans Cytochrome C552 In The Reduced State'
p2102
sg36
F91.34615384615384
sg2089
I57
sg2090
F1.25139e-21
sg39
g60
sg2091
I0
sg42
S'1i6d'
p2103
sg2093
F84.3445
sg2094
F207.0
sg46
I104
sg47
F91.34615384615384
sg2095
g2096
sg2097
g2098
sg2099
I97
stp2104
a(F43.87755102040816
F91.34615384615384
(dp2105
g23
F43.87755102040816
sg2078
I0
sg2079
I3
sg2080
g11
sg2081
I3
sg2082
I2
sg2083
I99
sg2084
I43
sg2085
g2086
sg2087
I98
sg34
S'Chain A, Solution Structure Of The Functional Domain Of Paracoccus Denitrificans Cytochrome C552 In The Oxidized State'
p2106
sg36
F91.34615384615384
sg2089
I57
sg2090
F1.25139e-21
sg39
g60
sg2091
I0
sg42
S'1i6e'
p2107
sg2093
F84.3445
sg2094
F207.0
sg46
I104
sg47
F91.34615384615384
sg2095
g2096
sg2097
g2098
sg2099
I97
stp2108
a(F43.87755102040816
F91.34615384615384
(dp2109
g23
F43.87755102040816
sS'query-frame'
p2110
I0
sS'hit-from'
p2111
I2
sS'num'
p2112
g11
sS'gaps'
p2113
I3
sS'query-from'
p2114
I2
sS'query-to'
p2115
I99
sS'identity'
p2116
I43
sS'midline'
p2117
S'D   G+K+F  KC  CH ++  G    GP+L+G+ GR      GF Y+D  K  G  W  E L E+L NPK  + GTKM FAG+ K  +R +LIAYL+'
p2118
sS'align-len'
p2119
I98
sg34
S'ChainA, Structure Of The Soluble Domain Of Cytochrome C552 From Paracoccus Denitrificans In The Reduced State'
p2120
sg36
F91.34615384615384
sS'positive'
p2121
I57
sS'evalue'
p2122
F1.3169e-21
sg39
g60
sS'hit-frame'
p2123
I0
sg42
S'1ql3'
p2124
sS'bit-score'
p2125
F84.3445
sS'score'
p2126
F207.0
sg46
I104
sg47
F91.34615384615384
sS'hseq'
p2127
S'DPAAGEKVF-GKCKACHKLD--GNDGVGPHLNGVVGRTVAGVDGFNYSDPMKAHGGDWTPEALQEFLTNPKAVVKGTKMAFAGLPKIEDRANLIAYLE'
p2128
sS'qseq'
p2129
S'DVEKGKKIFVQKCAQCHTVEKGGKHKTGPNLHGLFGRKTGQAPGFTYTDANKNKGITWKEETLMEYLENPKKYIPGTKMIFAGIKKKTEREDLIAYLK'
p2130
sS'hit-to'
p2131
I96
stp2132
a(F43.87755102040816
F91.34615384615384
(dp2133
g23
F43.87755102040816
sg2110
I0
sg2111
I2
sg2112
g11
sg2113
I3
sg2114
I2
sg2115
I99
sg2116
I43
sg2117
g2118
sg2119
I98
sg34
S'Chain B, Structure Of The Soluble Domain Of Cytochrome C552 From Paracoccus Denitrificans In The Reduced State'
p2134
sg36
F91.34615384615384
sg2121
I57
sg2122
F1.3169e-21
sg39
g40
sg2123
I0
sg42
S'1ql3'
p2135
sg2125
F84.3445
sg2126
F207.0
sg46
I104
sg47
F91.34615384615384
sg2127
g2128
sg2129
g2130
sg2131
I96
stp2136
a(F43.87755102040816
F91.34615384615384
(dp2137
g23
F43.87755102040816
sg2110
I0
sg2111
I2
sg2112
g11
sg2113
I3
sg2114
I2
sg2115
I99
sg2116
I43
sg2117
g2118
sg2119
I98
sg34
S'Chain C, Structure Of The Soluble Domain Of Cytochrome C552 From Paracoccus Denitrificans In The Reduced State'
p2138
sg36
F91.34615384615384
sg2121
I57
sg2122
F1.3169e-21
sg39
g109
sg2123
I0
sg42
S'1ql3'
p2139
sg2125
F84.3445
sg2126
F207.0
sg46
I104
sg47
F91.34615384615384
sg2127
g2128
sg2129
g2130
sg2131
I96
stp2140
a(F43.87755102040816
F91.34615384615384
(dp2141
g23
F43.87755102040816
sg2110
I0
sg2111
I2
sg2112
g11
sg2113
I3
sg2114
I2
sg2115
I99
sg2116
I43
sg2117
g2118
sg2119
I98
sg34
S'Chain D, Structure Of The Soluble Domain Of Cytochrome C552 From Paracoccus Denitrificans In The Reduced State'
p2142
sg36
F91.34615384615384
sg2121
I57
sg2122
F1.3169e-21
sg39
g114
sg2123
I0
sg42
S'1ql3'
p2143
sg2125
F84.3445
sg2126
F207.0
sg46
I104
sg47
F91.34615384615384
sg2127
g2128
sg2129
g2130
sg2131
I96
stp2144
a(F43.87755102040816
F91.34615384615384
(dp2145
g23
F43.87755102040816
sg2110
I0
sg2111
I2
sg2112
g11
sg2113
I3
sg2114
I2
sg2115
I99
sg2116
I43
sg2117
g2118
sg2119
I98
sg34
S'Chain A, Structure Of The Soluble Domain Of Cytochrome C552 From Paracoccus Denitrificans In The Oxidised State'
p2146
sg36
F91.34615384615384
sg2121
I57
sg2122
F1.3169e-21
sg39
g60
sg2123
I0
sg42
S'1ql4'
p2147
sg2125
F84.3445
sg2126
F207.0
sg46
I104
sg47
F91.34615384615384
sg2127
g2128
sg2129
g2130
sg2131
I96
stp2148
a(F43.87755102040816
F91.34615384615384
(dp2149
g23
F43.87755102040816
sg2110
I0
sg2111
I2
sg2112
g11
sg2113
I3
sg2114
I2
sg2115
I99
sg2116
I43
sg2117
g2118
sg2119
I98
sg34
S'Chain B, Structure Of The Soluble Domain Of Cytochrome C552 From Paracoccus Denitrificans In The Oxidised State'
p2150
sg36
F91.34615384615384
sg2121
I57
sg2122
F1.3169e-21
sg39
g40
sg2123
I0
sg42
S'1ql4'
p2151
sg2125
F84.3445
sg2126
F207.0
sg46
I104
sg47
F91.34615384615384
sg2127
g2128
sg2129
g2130
sg2131
I96
stp2152
a(F43.87755102040816
F91.34615384615384
(dp2153
g23
F43.87755102040816
sg2110
I0
sg2111
I2
sg2112
g11
sg2113
I3
sg2114
I2
sg2115
I99
sg2116
I43
sg2117
g2118
sg2119
I98
sg34
S'Chain C, Structure Of The Soluble Domain Of Cytochrome C552 From Paracoccus Denitrificans In The Oxidised State'
p2154
sg36
F91.34615384615384
sg2121
I57
sg2122
F1.3169e-21
sg39
g109
sg2123
I0
sg42
S'1ql4'
p2155
sg2125
F84.3445
sg2126
F207.0
sg46
I104
sg47
F91.34615384615384
sg2127
g2128
sg2129
g2130
sg2131
I96
stp2156
a(F43.87755102040816
F91.34615384615384
(dp2157
g23
F43.87755102040816
sg2110
I0
sg2111
I2
sg2112
g11
sg2113
I3
sg2114
I2
sg2115
I99
sg2116
I43
sg2117
g2118
sg2119
I98
sg34
S'Chain D, Structure Of The Soluble Domain Of Cytochrome C552 From Paracoccus Denitrificans In The Oxidised State'
p2158
sg36
F91.34615384615384
sg2121
I57
sg2122
F1.3169e-21
sg39
g114
sg2123
I0
sg42
S'1ql4'
p2159
sg2125
F84.3445
sg2126
F207.0
sg46
I104
sg47
F91.34615384615384
sg2127
g2128
sg2129
g2130
sg2131
I96
stp2160
a(F43.87755102040816
F91.34615384615384
(dp2161
g23
F43.87755102040816
sS'query-frame'
p2162
I0
sS'hit-from'
p2163
I43
sS'num'
p2164
g11
sS'gaps'
p2165
I3
sS'query-from'
p2166
I2
sS'query-to'
p2167
I99
sS'identity'
p2168
I43
sS'midline'
p2169
S'D   G+K+F  KC  CH ++  G    GP+L+G+ GR      GF Y+D  K  G  W  E L E+L NPK  + GTKM FAG+ K  +R +LIAYL+'
p2170
sS'align-len'
p2171
I98
sg34
S'ChainX, Structure Of The Soluble Domain Of Cytochrome C552 With Its Flexible Linker Segment From Paracoccus Denitrificans'
p2172
sg36
F91.34615384615384
sS'positive'
p2173
I57
sS'evalue'
p2174
F2.13271e-21
sg39
g1930
sS'hit-frame'
p2175
I0
sg42
S'3m97'
p2176
sS'bit-score'
p2177
F84.7297
sS'score'
p2178
F208.0
sg46
I104
sg47
F91.34615384615384
sS'hseq'
p2179
S'DPAAGEKVF-GKCKACHKLD--GNDGVGPHLNGVVGRTVAGVDGFNYSDPMKAHGGDWTPEALQEFLTNPKAVVKGTKMAFAGLPKIEDRANLIAYLE'
p2180
sS'qseq'
p2181
S'DVEKGKKIFVQKCAQCHTVEKGGKHKTGPNLHGLFGRKTGQAPGFTYTDANKNKGITWKEETLMEYLENPKKYIPGTKMIFAGIKKKTEREDLIAYLK'
p2182
sS'hit-to'
p2183
I137
stp2184
a(F43.333333333333336
F25.96153846153846
(dp2185
g23
F43.333333333333336
sS'query-frame'
p2186
I0
sS'hit-from'
p2187
I1
sS'num'
p2188
g11
sS'gaps'
p2189
I3
sS'query-from'
p2190
I1
sS'query-to'
p2191
I30
sS'identity'
p2192
I13
sS'midline'
p2193
S'GDV  G++IF   CA CH    GG++   P'
p2194
sS'align-len'
p2195
I30
sg34
S'ChainA, Crystallization And Structural Analysis Of Cytochrome C6 From The Diatom Phaeodactylum Tricornutum At 1.5 A Resolution'
p2196
sg36
F25.96153846153846
sS'positive'
p2197
I17
sS'evalue'
p2198
F0.535933
sg39
g60
sS'hit-frame'
p2199
I0
sg42
S'3dmi'
p2200
sS'bit-score'
p2201
F28.4906
sS'score'
p2202
F62.0
sg46
I104
sg47
F25.96153846153846
sS'hseq'
p2203
S'GDVGAGEQIFNANCAACHA---GGQNVIMP'
p2204
sS'qseq'
p2205
S'GDVEKGKKIFVQKCAQCHTVEKGGKHKTGP'
p2206
sS'hit-to'
p2207
I27
stp2208
a(F42.25352112676056
F67.3076923076923
(dp2209
g23
F42.25352112676056
sS'query-frame'
p2210
I0
sS'hit-from'
p2211
I26
sS'num'
p2212
g11
sS'gaps'
p2213
I10
sS'query-from'
p2214
I5
sS'query-to'
p2215
I75
sS'identity'
p2216
I30
sS'midline'
p2217
S'KG+K F  KC  CH++      E     KTGPNL+G+ GR  G  P F Y D   A    G  W EE +  Y+++P  ++'
p2218
sS'align-len'
p2219
I80
sg34
S'ChainA, Cytochrome C2, Nmr, 20 Structures'
p2220
sg36
F67.3076923076923
sS'positive'
p2221
I41
sS'evalue'
p2222
F4.06341e-09
sg39
g60
sS'hit-frame'
p2223
I0
sg42
S'1c2n'
p2224
sS'bit-score'
p2225
F50.8322
sS'score'
p2226
F120.0
sg46
I104
sg47
F67.3076923076923
sS'hseq'
p2227
S'KGEKEF-NKCKTCHSIIAPDGTEIVKGAKTGPNLYGVVGRTAGTYPEFKYKDSIVALGASGFAWTEEDIATYVKDPGAFL'
p2228
sS'qseq'
p2229
S'KGKKIFVQKCAQCHTV------EKGGKHKTGPNLHGLFGRKTGQAPGFTYTD---ANKNKGITWKEETLMEYLENPKKYI'
p2230
sS'hit-to'
p2231
I104
stp2232
a(F42.10526315789474
F18.26923076923077
(dp2233
g23
F42.10526315789474
sS'query-frame'
p2234
I0
sS'hit-from'
p2235
I2
sS'num'
p2236
g11
sS'gaps'
p2237
I0
sS'query-from'
p2238
I1
sS'query-to'
p2239
I19
sS'identity'
p2240
I8
sS'midline'
p2241
S' D+  G K+F   CA CH '
p2242
sS'align-len'
p2243
I19
sg34
S'ChainB, Structure Of The Imidazole-Adduct Of The Phormidium Laminosum Cytochrome C6 Q51v Variant'
p2244
sg36
F18.26923076923077
sS'positive'
p2245
I10
sS'evalue'
p2246
F4.89021
sg39
g40
sS'hit-frame'
p2247
I0
sg42
S'3ph2'
p2248
sS'bit-score'
p2249
F25.7942
sS'score'
p2250
F55.0
sg46
I104
sg47
F18.26923076923077
sS'hseq'
p2251
S'ADLATGAKVFSANCAACHA'
p2252
sS'qseq'
p2253
S'GDVEKGKKIFVQKCAQCHT'
p2254
sS'hit-to'
p2255
I20
stp2256
a(F42.10526315789474
F18.26923076923077
(dp2257
g23
F42.10526315789474
sS'query-frame'
p2258
I0
sS'hit-from'
p2259
I2
sS'num'
p2260
g11
sS'gaps'
p2261
I0
sS'query-from'
p2262
I1
sS'query-to'
p2263
I19
sS'identity'
p2264
I8
sS'midline'
p2265
S' D+  G K+F   CA CH '
p2266
sS'align-len'
p2267
I19
sg34
S'ChainA, Structure Of Wild-Type Phormidium Laminosum Cytochrome C6'
p2268
sg36
F18.26923076923077
sS'positive'
p2269
I10
sS'evalue'
p2270
F5.26019
sg39
g60
sS'hit-frame'
p2271
I0
sg42
S'2v08'
p2272
sS'bit-score'
p2273
F25.7942
sS'score'
p2274
F55.0
sg46
I104
sg47
F18.26923076923077
sS'hseq'
p2275
S'ADLATGAKVFSANCAACHA'
p2276
sS'qseq'
p2277
S'GDVEKGKKIFVQKCAQCHT'
p2278
sS'hit-to'
p2279
I20
stp2280
a(F42.10526315789474
F18.26923076923077
(dp2281
g23
F42.10526315789474
sg2258
I0
sg2259
I2
sg2260
g11
sg2261
I0
sg2262
I1
sg2263
I19
sg2264
I8
sg2265
g2266
sg2267
I19
sg34
S'Chain B, Structure Of Wild-Type Phormidium Laminosum Cytochrome C6'
p2282
sg36
F18.26923076923077
sg2269
I10
sg2270
F5.26019
sg39
g40
sg2271
I0
sg42
S'2v08'
p2283
sg2273
F25.7942
sg2274
F55.0
sg46
I104
sg47
F18.26923076923077
sg2275
g2276
sg2277
g2278
sg2279
I20
stp2284
a(F41.83673469387755
F90.38461538461539
(dp2285
g23
F41.83673469387755
sS'query-frame'
p2286
I0
sS'hit-from'
p2287
I1
sS'num'
p2288
g11
sS'gaps'
p2289
I21
sS'query-from'
p2290
I1
sS'query-to'
p2291
I98
sS'identity'
p2292
I41
sS'midline'
p2293
S'GD  KG+K F  KC  CH++      E     KTGPNL+G+ GR  G  P F Y D   A    G  W EE +  Y+++P  ++          T+M F   K     ED+ AYL'
p2294
sS'align-len'
p2295
I115
sg34
S'ChainA, Crystal Structure Of Cytochrome C2 Mutant G95e'
p2296
sg36
F90.38461538461539
sS'positive'
p2297
I54
sS'evalue'
p2298
F5.9456e-11
sg39
g60
sS'hit-frame'
p2299
I0
sg42
S'1vyd'
p2300
sS'bit-score'
p2301
F56.225
sS'score'
p2302
F134.0
sg46
I104
sg47
F90.38461538461539
sS'hseq'
p2303
S'GDAAKGEKEF-NKCKTCHSIIAPDGTEIVKGAKTGPNLYGVVGRTAGTYPEFKYKDSIVALGASGFAWTEEDIATYVKDPGAFLKEKLDDKKAKTEMAF---KLAKGGEDVAAYL'
p2304
sS'qseq'
p2305
S'GDVEKGKKIFVQKCAQCHTV------EKGGKHKTGPNLHGLFGRKTGQAPGFTYTD---ANKNKGITWKEETLMEYLENPKKYI--------PGTKMIFAGIKKKTEREDLIAYL'
p2306
sS'hit-to'
p2307
I111
stp2308
a(F41.83673469387755
F90.38461538461539
(dp2309
g23
F41.83673469387755
sg2286
I0
sg2287
I1
sg2288
g11
sg2289
I21
sg2290
I1
sg2291
I98
sg2292
I41
sg2293
g2294
sg2295
I115
sg34
S'Chain B, Crystal Structure Of Cytochrome C2 Mutant G95e'
p2310
sg36
F90.38461538461539
sg2297
I54
sg2298
F5.9456e-11
sg39
g40
sg2299
I0
sg42
S'1vyd'
p2311
sg2301
F56.225
sg2302
F134.0
sg46
I104
sg47
F90.38461538461539
sg2303
g2304
sg2305
g2306
sg2307
I111
stp2312
a(F41.83673469387755
F90.38461538461539
(dp2313
g23
F41.83673469387755
sS'query-frame'
p2314
I0
sS'hit-from'
p2315
I1
sS'num'
p2316
g11
sS'gaps'
p2317
I21
sS'query-from'
p2318
I1
sS'query-to'
p2319
I98
sS'identity'
p2320
I41
sS'midline'
p2321
S'GD  KG+K F  KC  CH++      E     KTGPNL+G+ GR  G  P F Y D   A    G  W EE +  Y+++P  ++          T M F   K     ED+ AYL'
p2322
sS'align-len'
p2323
I115
sg34
S'ChainA, Molecular Structure Of Cytochrome C2 Isolated From Rhodobacter Capsulatus Determined At 2.5 Angstroms Resolution'
p2324
sg36
F90.38461538461539
sS'positive'
p2325
I53
sS'evalue'
p2326
F1.10556e-10
sg39
g60
sS'hit-frame'
p2327
I0
sg42
S'1c2r'
p2328
sS'bit-score'
p2329
F55.4546
sS'score'
p2330
F132.0
sg46
I104
sg47
F90.38461538461539
sS'hseq'
p2331
S'GDAAKGEKEF-NKCKTCHSIIAPDGTEIVKGAKTGPNLYGVVGRTAGTYPEFKYKDSIVALGASGFAWTEEDIATYVKDPGAFLKEKLDDKKAKTGMAF---KLAKGGEDVAAYL'
p2332
sS'qseq'
p2333
S'GDVEKGKKIFVQKCAQCHTV------EKGGKHKTGPNLHGLFGRKTGQAPGFTYTD---ANKNKGITWKEETLMEYLENPKKYI--------PGTKMIFAGIKKKTEREDLIAYL'
p2334
sS'hit-to'
p2335
I111
stp2336
a(F41.83673469387755
F90.38461538461539
(dp2337
g23
F41.83673469387755
sg2314
I0
sg2315
I1
sg2316
g11
sg2317
I21
sg2318
I1
sg2319
I98
sg2320
I41
sg2321
g2322
sg2323
I115
sg34
S'Chain B, Molecular Structure Of Cytochrome C2 Isolated From Rhodobacter Capsulatus Determined At 2.5 Angstroms Resolution'
p2338
sg36
F90.38461538461539
sg2325
I53
sg2326
F1.10556e-10
sg39
g40
sg2327
I0
sg42
S'1c2r'
p2339
sg2329
F55.4546
sg2330
F132.0
sg46
I104
sg47
F90.38461538461539
sg2331
g2332
sg2333
g2334
sg2335
I111
stp2340
a(F41.41414141414141
F93.26923076923077
(dp2341
g23
F41.41414141414141
sS'query-frame'
p2342
I0
sS'hit-from'
p2343
I2
sS'num'
p2344
g11
sS'gaps'
p2345
I13
sS'query-from'
p2346
I1
sS'query-to'
p2347
I99
sS'identity'
p2348
I41
sS'midline'
p2349
S'GD   G+K+  +KC  CHT ++GG +K GPNL G+F         + Y+++    K KG+TW E  L  Y++NPK ++          +KM F  + K  E E++IAYLK'
p2350
sS'align-len'
p2351
I110
sg34
S'ChainA, Refinement Of The Crystal Structure Of Oxidized Rhodospirillum Rubrum Cytochrome C2'
p2352
sg36
F93.26923076923077
sS'positive'
p2353
I61
sS'evalue'
p2354
F1.92459e-17
sg39
g60
sS'hit-frame'
p2355
I0
sg42
S'2c2c'
p2356
sS'bit-score'
p2357
F73.559
sS'score'
p2358
F179.0
sg46
I104
sg47
F93.26923076923077
sS'hseq'
p2359
S'GDAAAGEKV-SKKCLACHTFDQGGANKVGPNLFGVFENTAAHKDNYAYSESYTEMKAKGLTWTEANLAAYVKNPKAFVLEKSGDPKAKSKMTFK-LTKDDEIENVIAYLK'
p2360
sS'qseq'
p2361
S'GDVEKGKKIFVQKCAQCHTVEKGGKHKTGPNLHGLFGRKTGQAPGFTYTDA---NKNKGITWKEETLMEYLENPKKYI--------PGTKMIFAGIKKKTEREDLIAYLK'
p2362
sS'hit-to'
p2363
I109
stp2364
a(F41.41414141414141
F93.26923076923077
(dp2365
g23
F41.41414141414141
sg2342
I0
sg2343
I2
sg2344
g11
sg2345
I13
sg2346
I1
sg2347
I99
sg2348
I41
sg2349
g2350
sg2351
I110
sg34
S'Chain A, Refinement Of The Crystal Structure Of Oxidized Rhodospirillum Rubrum Cytochrome C2'
p2366
sg36
F93.26923076923077
sg2353
I61
sg2354
F1.92459e-17
sg39
g60
sg2355
I0
sg42
S'3c2c'
p2367
sg2357
F73.559
sg2358
F179.0
sg46
I104
sg47
F93.26923076923077
sg2359
g2360
sg2361
g2362
sg2363
I109
stp2368
a(F41.1764705882353
F16.346153846153847
(dp2369
g23
F41.1764705882353
sS'query-frame'
p2370
I0
sS'hit-from'
p2371
I4
sS'num'
p2372
g11
sS'gaps'
p2373
I0
sS'query-from'
p2374
I2
sS'query-to'
p2375
I18
sS'identity'
p2376
I7
sS'midline'
p2377
S'D+++G  +F + CA CH'
p2378
sS'align-len'
p2379
I17
sg34
S'ChainA, Structure Of Oxidized Arabidopsis Thaliana Cytochrome 6a'
p2380
sg36
F16.346153846153847
sS'positive'
p2381
I12
sS'evalue'
p2382
F9.7763
sg39
g60
sS'hit-frame'
p2383
I0
sg42
S'2ce0'
p2384
sS'bit-score'
p2385
F25.0238
sS'score'
p2386
F53.0
sg46
I104
sg47
F16.346153846153847
sS'hseq'
p2387
S'DIQRGATLFNRACAACH'
p2388
sS'qseq'
p2389
S'DVEKGKKIFVQKCAQCH'
p2390
sS'hit-to'
p2391
I20
stp2392
a(F41.1764705882353
F16.346153846153847
(dp2393
g23
F41.1764705882353
sg2370
I0
sg2371
I4
sg2372
g11
sg2373
I0
sg2374
I2
sg2375
I18
sg2376
I7
sg2377
g2378
sg2379
I17
sg34
S'Chain A, Structure Of Reduced Arabidopsis Thaliana Cytochrome 6a'
p2394
sg36
F16.346153846153847
sg2381
I12
sg2382
F9.7763
sg39
g60
sg2383
I0
sg42
S'2ce1'
p2395
sg2385
F25.0238
sg2386
F53.0
sg46
I104
sg47
F16.346153846153847
sg2387
g2388
sg2389
g2390
sg2391
I20
stp2396
a(F40.0
F94.23076923076923
(dp2397
g23
F40.0
sS'query-frame'
p2398
I0
sS'hit-from'
p2399
I3
sS'num'
p2400
g11
sS'gaps'
p2401
I19
sS'query-from'
p2402
I1
sS'query-to'
p2403
I100
sS'identity'
p2404
I40
sS'midline'
p2405
S'GD  KG+ +F +KC  CH V    K+  GP L G+  R+ G APGF Y+  N      G+ W  E ++ YL +P  ++                TKM+F  +  + ER+D++AYLK+'
p2406
sS'align-len'
p2407
I117
sg34
S'ChainA, Structure Of Cytochrome C2 From Rhodospirillum Centenum'
p2408
sg36
F94.23076923076923
sS'positive'
p2409
I60
sS'evalue'
p2410
F9.26522e-17
sg39
g60
sS'hit-frame'
p2411
I0
sg42
S'1jdl'
p2412
sS'bit-score'
p2413
F72.0182
sS'score'
p2414
F175.0
sg46
I104
sg47
F94.23076923076923
sS'hseq'
p2415
S'GDPAKGEAVF-KKCMACHRVGPDAKNLVGPALTGVIDRQAGTAPGFNYSAINHAAGEAGLHWTPENIIAYLPDPNAFLRKFLADAGHAEQAKGSTKMVFK-LPDEQERKDVVAYLKQ'
p2416
sS'qseq'
p2417
S'GDVEKGKKIFVQKCAQCHTVEKGGKHKTGPNLHGLFGRKTGQAPGFTYTDANK---NKGITWKEETLMEYLENPKKYIP--------------GTKMIFAGIKKKTEREDLIAYLKK'
p2418
sS'hit-to'
p2419
I117
stp2420
a(F40.0
F94.23076923076923
(dp2421
g23
F40.0
sS'query-frame'
p2422
I0
sS'hit-from'
p2423
I3
sS'num'
p2424
g11
sS'gaps'
p2425
I21
sS'query-from'
p2426
I1
sS'query-to'
p2427
I100
sS'identity'
p2428
I40
sS'midline'
p2429
S'GD E G K F Q C  CH +         G   KTGPNL+G+ GR  G    F  Y +  K    KG+ W EE  ++Y+++P K++           KM F  +KK+ +  ++ AYL++'
p2430
sS'align-len'
p2431
I119
sg34
S'ChainA, Crystallization And X-Ray Structure Determination Of Cytochrome C2 From Rhodobacter Sphaeroides In Three Crystal Forms'
p2432
sg36
F94.23076923076923
sS'positive'
p2433
I59
sS'evalue'
p2434
F3.46755e-11
sg39
g60
sS'hit-frame'
p2435
I0
sg42
S'2cxb'
p2436
sS'bit-score'
p2437
F56.9954
sS'score'
p2438
F136.0
sg46
I104
sg47
F94.23076923076923
sS'hseq'
p2439
S'GDPEAGAKAFNQ-CQTCHVIVDDSGTTIAGRNAKTGPNLYGVVGRTAGTQADFKGYGEGMKEAGAKGLAWDEEHFVQYVQDPTKFLKEYTGDAKAKGKMTFK-LKKEADAHNIWAYLQQ'
p2440
sS'qseq'
p2441
S'GDVEKGKKIFVQKCAQCHTVEK-------GGKHKTGPNLHGLFGRKTGQAPGFT-YTDANKN---KGITWKEETLMEYLENPKKYI--------PGTKMIFAGIKKKTEREDLIAYLKK'
p2442
sS'hit-to'
p2443
I119
stp2444
a(F40.0
F94.23076923076923
(dp2445
g23
F40.0
sg2422
I0
sg2423
I3
sg2424
g11
sg2425
I21
sg2426
I1
sg2427
I100
sg2428
I40
sg2429
g2430
sg2431
I119
sg34
S'Chain B, Crystallization And X-Ray Structure Determination Of Cytochrome C2 From Rhodobacter Sphaeroides In Three Crystal Forms'
p2446
sg36
F94.23076923076923
sg2433
I59
sg2434
F3.46755e-11
sg39
g40
sg2435
I0
sg42
S'2cxb'
p2447
sg2437
F56.9954
sg2438
F136.0
sg46
I104
sg47
F94.23076923076923
sg2439
g2440
sg2441
g2442
sg2443
I119
stp2448
a(F40.0
F94.23076923076923
(dp2449
g23
F40.0
sg2422
I0
sg2423
I3
sg2424
g11
sg2425
I21
sg2426
I1
sg2427
I100
sg2428
I40
sg2429
g2430
sg2431
I119
sg34
S'Chain C, X-ray Structure Of The Cytochrome-c(2)-photosynthetic Reaction Center Electron Transfer Complex From Rhodobacter Sphaeroides In Type Ii Co- Crystals'
p2450
sg36
F94.23076923076923
sg2433
I59
sg2434
F3.46755e-11
sg39
g109
sg2435
I0
sg42
S'1l9b'
p2451
sg2437
F56.9954
sg2438
F136.0
sg46
I104
sg47
F94.23076923076923
sg2439
g2440
sg2441
g2442
sg2443
I119
stp2452
a(F40.0
F94.23076923076923
(dp2453
g23
F40.0
sg2422
I0
sg2423
I3
sg2424
g11
sg2425
I21
sg2426
I1
sg2427
I100
sg2428
I40
sg2429
g2430
sg2431
I119
sg34
S'Chain C, X-Ray Structure Of The Cytochrome-C(2)-Photosynthetic Reaction Center Electron Transfer Complex From Rhodobacter Sphaeroides In Type I Co- Crystals'
p2454
sg36
F94.23076923076923
sg2433
I59
sg2434
F3.46755e-11
sg39
g109
sg2435
I0
sg42
S'1l9j'
p2455
sg2437
F56.9954
sg2438
F136.0
sg46
I104
sg47
F94.23076923076923
sg2439
g2440
sg2441
g2442
sg2443
I119
stp2456
a(F40.0
F94.23076923076923
(dp2457
g23
F40.0
sg2422
I0
sg2423
I3
sg2424
g11
sg2425
I21
sg2426
I1
sg2427
I100
sg2428
I40
sg2429
g2430
sg2431
I119
sg34
S'Chain D, X-Ray Structure Of The Cytochrome-C(2)-Photosynthetic Reaction Center Electron Transfer Complex From Rhodobacter Sphaeroides In Type I Co- Crystals'
p2458
sg36
F94.23076923076923
sg2433
I59
sg2434
F3.46755e-11
sg39
g114
sg2435
I0
sg42
S'1l9j'
p2459
sg2437
F56.9954
sg2438
F136.0
sg46
I104
sg47
F94.23076923076923
sg2439
g2440
sg2441
g2442
sg2443
I119
stp2460
a(F40.0
F94.23076923076923
(dp2461
g23
F40.0
sg2422
I0
sg2423
I3
sg2424
g11
sg2425
I21
sg2426
I1
sg2427
I100
sg2428
I40
sg2429
g2430
sg2431
I119
sg34
S'Chain A, Crystallization And X-Ray Structure Determination Of Cytochrome C2 From Rhodobacter Sphaeroides In Three Crystal Forms'
p2462
sg36
F94.23076923076923
sg2433
I59
sg2434
F3.46755e-11
sg39
g60
sg2435
I0
sg42
S'1cxa'
p2463
sg2437
F56.9954
sg2438
F136.0
sg46
I104
sg47
F94.23076923076923
sg2439
g2440
sg2441
g2442
sg2443
I119
stp2464
a(F40.0
F94.23076923076923
(dp2465
g23
F40.0
sg2422
I0
sg2423
I3
sg2424
g11
sg2425
I21
sg2426
I1
sg2427
I100
sg2428
I40
sg2429
g2430
sg2431
I119
sg34
S'Chain A, Crystallization And X-Ray Structure Determination Of Cytochrome C2 From Rhodobacter Sphaeroides In Three Crystal Forms'
p2466
sg36
F94.23076923076923
sg2433
I59
sg2434
F3.46755e-11
sg39
g60
sg2435
I0
sg42
S'1cxc'
p2467
sg2437
F56.9954
sg2438
F136.0
sg46
I104
sg47
F94.23076923076923
sg2439
g2440
sg2441
g2442
sg2443
I119
stp2468
a(F40.0
F33.65384615384615
(dp2469
g23
F40.0
sS'query-frame'
p2470
I0
sS'hit-from'
p2471
I1
sS'num'
p2472
g11
sS'gaps'
p2473
I2
sS'query-from'
p2474
I1
sS'query-to'
p2475
I35
sS'identity'
p2476
I14
sS'midline'
p2477
S'G    G++IF  +C+ CHTV   + G+   GP+L G+'
p2478
sS'align-len'
p2479
I37
sg34
S'ChainA, Cytochrome C Domain Of Pp3183 Protein From Pseudomonas Putida'
p2480
sg36
F33.65384615384615
sS'positive'
p2481
I22
sS'evalue'
p2482
F0.0195234
sg39
g60
sS'hit-frame'
p2483
I0
sg42
S'2l4d'
p2484
sS'bit-score'
p2485
F32.3426
sS'score'
p2486
F72.0
sg46
I104
sg47
F33.65384615384615
sS'hseq'
p2487
S'GSFTSGEQIFRTRCSSCHTVGNTEPGQPGIGPDLLGV'
p2488
sS'qseq'
p2489
S'GDVEKGKKIFVQKCAQCHTV--EKGGKHKTGPNLHGL'
p2490
sS'hit-to'
p2491
I37
stp2492
a(F38.70967741935484
F26.923076923076923
(dp2493
g23
F38.70967741935484
sS'query-frame'
p2494
I0
sS'hit-from'
p2495
I1
sS'num'
p2496
g11
sS'gaps'
p2497
I3
sS'query-from'
p2498
I1
sS'query-to'
p2499
I31
sS'identity'
p2500
I12
sS'midline'
p2501
S'GDV  G  +F   CA CH    GG++    N'
p2502
sS'align-len'
p2503
I31
sg34
S'ChainA, Crystal Structure Of Cytochrome C6 From Arthrospira Maxima'
p2504
sg36
F26.923076923076923
sS'positive'
p2505
I15
sS'evalue'
p2506
F0.712977
sg39
g60
sS'hit-frame'
p2507
I0
sg42
S'1f1f'
p2508
sS'bit-score'
p2509
F28.1054
sS'score'
p2510
F61.0
sg46
I104
sg47
F26.923076923076923
sS'hseq'
p2511
S'GDVAAGASVFSANCAACHM---GGRNVIVAN'
p2512
sS'qseq'
p2513
S'GDVEKGKKIFVQKCAQCHTVEKGGKHKTGPN'
p2514
sS'hit-to'
p2515
I28
stp2516
a(F38.70967741935484
F26.923076923076923
(dp2517
g23
F38.70967741935484
sS'query-frame'
p2518
I0
sS'hit-from'
p2519
I1
sS'num'
p2520
g11
sS'gaps'
p2521
I3
sS'query-from'
p2522
I1
sS'query-to'
p2523
I31
sS'identity'
p2524
I12
sS'midline'
p2525
S'GDV  G  +F   CA CH    GG++    N'
p2526
sS'align-len'
p2527
I31
sg34
S'ChainA, Cytochrome C6 From Arthrospira Maxima: An Assembly Of 24 Subunits In The Form Of An Oblate Shell'
p2528
sg36
F26.923076923076923
sS'positive'
p2529
I15
sS'evalue'
p2530
F0.911366
sg39
g60
sS'hit-frame'
p2531
I0
sg42
S'1kib'
p2532
sS'bit-score'
p2533
F27.7202
sS'score'
p2534
F60.0
sg46
I104
sg47
F26.923076923076923
sS'hseq'
p2535
S'GDVAAGASVFSANCAACHM---GGRNVIVAN'
p2536
sS'qseq'
p2537
S'GDVEKGKKIFVQKCAQCHTVEKGGKHKTGPN'
p2538
sS'hit-to'
p2539
I28
stp2540
a(F38.70967741935484
F26.923076923076923
(dp2541
g23
F38.70967741935484
sg2518
I0
sg2519
I1
sg2520
g11
sg2521
I3
sg2522
I1
sg2523
I31
sg2524
I12
sg2525
g2526
sg2527
I31
sg34
S'Chain B, Cytochrome C6 From Arthrospira Maxima: An Assembly Of 24 Subunits In The Form Of An Oblate Shell'
p2542
sg36
F26.923076923076923
sg2529
I15
sg2530
F0.911366
sg39
g40
sg2531
I0
sg42
S'1kib'
p2543
sg2533
F27.7202
sg2534
F60.0
sg46
I104
sg47
F26.923076923076923
sg2535
g2536
sg2537
g2538
sg2539
I28
stp2544
a(F38.70967741935484
F26.923076923076923
(dp2545
g23
F38.70967741935484
sg2518
I0
sg2519
I1
sg2520
g11
sg2521
I3
sg2522
I1
sg2523
I31
sg2524
I12
sg2525
g2526
sg2527
I31
sg34
S'Chain C, Cytochrome C6 From Arthrospira Maxima: An Assembly Of 24 Subunits In The Form Of An Oblate Shell'
p2546
sg36
F26.923076923076923
sg2529
I15
sg2530
F0.911366
sg39
g109
sg2531
I0
sg42
S'1kib'
p2547
sg2533
F27.7202
sg2534
F60.0
sg46
I104
sg47
F26.923076923076923
sg2535
g2536
sg2537
g2538
sg2539
I28
stp2548
a(F38.70967741935484
F26.923076923076923
(dp2549
g23
F38.70967741935484
sg2518
I0
sg2519
I1
sg2520
g11
sg2521
I3
sg2522
I1
sg2523
I31
sg2524
I12
sg2525
g2526
sg2527
I31
sg34
S'Chain D, Cytochrome C6 From Arthrospira Maxima: An Assembly Of 24 Subunits In The Form Of An Oblate Shell'
p2550
sg36
F26.923076923076923
sg2529
I15
sg2530
F0.911366
sg39
g114
sg2531
I0
sg42
S'1kib'
p2551
sg2533
F27.7202
sg2534
F60.0
sg46
I104
sg47
F26.923076923076923
sg2535
g2536
sg2537
g2538
sg2539
I28
stp2552
a(F38.70967741935484
F26.923076923076923
(dp2553
g23
F38.70967741935484
sg2518
I0
sg2519
I1
sg2520
g11
sg2521
I3
sg2522
I1
sg2523
I31
sg2524
I12
sg2525
g2526
sg2527
I31
sg34
S'Chain E, Cytochrome C6 From Arthrospira Maxima: An Assembly Of 24 Subunits In The Form Of An Oblate Shell'
p2554
sg36
F26.923076923076923
sg2529
I15
sg2530
F0.911366
sg39
g135
sg2531
I0
sg42
S'1kib'
p2555
sg2533
F27.7202
sg2534
F60.0
sg46
I104
sg47
F26.923076923076923
sg2535
g2536
sg2537
g2538
sg2539
I28
stp2556
a(F38.70967741935484
F26.923076923076923
(dp2557
g23
F38.70967741935484
sg2518
I0
sg2519
I1
sg2520
g11
sg2521
I3
sg2522
I1
sg2523
I31
sg2524
I12
sg2525
g2526
sg2527
I31
sg34
S'Chain F, Cytochrome C6 From Arthrospira Maxima: An Assembly Of 24 Subunits In The Form Of An Oblate Shell'
p2558
sg36
F26.923076923076923
sg2529
I15
sg2530
F0.911366
sg39
g9
sg2531
I0
sg42
S'1kib'
p2559
sg2533
F27.7202
sg2534
F60.0
sg46
I104
sg47
F26.923076923076923
sg2535
g2536
sg2537
g2538
sg2539
I28
stp2560
a(F38.70967741935484
F26.923076923076923
(dp2561
g23
F38.70967741935484
sg2518
I0
sg2519
I1
sg2520
g11
sg2521
I3
sg2522
I1
sg2523
I31
sg2524
I12
sg2525
g2526
sg2527
I31
sg34
S'Chain G, Cytochrome C6 From Arthrospira Maxima: An Assembly Of 24 Subunits In The Form Of An Oblate Shell'
p2562
sg36
F26.923076923076923
sg2529
I15
sg2530
F0.911366
sg39
S'G'
p2563
sg2531
I0
sg42
S'1kib'
p2564
sg2533
F27.7202
sg2534
F60.0
sg46
I104
sg47
F26.923076923076923
sg2535
g2536
sg2537
g2538
sg2539
I28
stp2565
a(F38.70967741935484
F26.923076923076923
(dp2566
g23
F38.70967741935484
sg2518
I0
sg2519
I1
sg2520
g11
sg2521
I3
sg2522
I1
sg2523
I31
sg2524
I12
sg2525
g2526
sg2527
I31
sg34
S'Chain H, Cytochrome C6 From Arthrospira Maxima: An Assembly Of 24 Subunits In The Form Of An Oblate Shell'
p2567
sg36
F26.923076923076923
sg2529
I15
sg2530
F0.911366
sg39
g261
sg2531
I0
sg42
S'1kib'
p2568
sg2533
F27.7202
sg2534
F60.0
sg46
I104
sg47
F26.923076923076923
sg2535
g2536
sg2537
g2538
sg2539
I28
stp2569
a(F38.70967741935484
F28.846153846153847
(dp2570
g23
F38.70967741935484
sS'query-frame'
p2571
I0
sS'hit-from'
p2572
I2
sS'num'
p2573
g11
sS'gaps'
p2574
I1
sS'query-from'
p2575
I2
sS'query-to'
p2576
I32
sS'identity'
p2577
I12
sS'midline'
p2578
S'D+++G +IF   CA CH +  G   + G NL'
p2579
sS'align-len'
p2580
I31
sg34
S'ChainA, Crystal Structure Of Cytochrome C6c From Synechococcus Sp. Pcc 7002'
p2581
sg36
F28.846153846153847
sS'positive'
p2582
I18
sS'evalue'
p2583
F5.23292
sg39
g60
sS'hit-frame'
p2584
I0
sg42
S'4eie'
p2585
sS'bit-score'
p2586
F25.7942
sS'score'
p2587
F55.0
sg46
I104
sg47
F28.846153846153847
sS'hseq'
p2588
S'DLDQGAQIFEAHCAGCH-LNGGNIVRRGKNL'
p2589
sS'qseq'
p2590
S'DVEKGKKIFVQKCAQCHTVEKGGKHKTGPNL'
p2591
sS'hit-to'
p2592
I31
stp2593
a(F38.144329896907216
F88.46153846153847
(dp2594
g23
F38.144329896907216
sS'query-frame'
p2595
I0
sS'hit-from'
p2596
I2
sS'num'
p2597
g11
sS'gaps'
p2598
I22
sS'query-from'
p2599
I2
sS'query-to'
p2600
I98
sS'identity'
p2601
I37
sS'midline'
p2602
S'D + G+ +F Q C  CH   +  K+  GP L G+ GRK G A GFTY+  N N    G+ W  + ++ YL +P  +              +  TKM F  +  + +R+D++AYL'
p2603
sS'align-len'
p2604
I114
sg34
S'ChainA, Refined Crystal Structure Of Cytochrome C2 From Rhodopseudomonas Palustris At 1.4 Angstrom Resolution'
p2605
sg36
F88.46153846153847
sS'positive'
p2606
I57
sS'evalue'
p2607
F6.88719e-14
sg39
g60
sS'hit-frame'
p2608
I0
sg42
S'1hh7'
p2609
sS'bit-score'
p2610
F64.3142
sS'score'
p2611
F155.0
sg46
I104
sg47
F88.46153846153847
sS'hseq'
p2612
S'DAKAGEAVFKQ-CMTCH---RADKNMVGPALAGVVGRKAGTAAGFTYSPLNHNSGEAGLVWTADNIVPYLADPNAFLKKFLTEKGKADQAVGVTKMTFK-LANEQQRKDVVAYL'
p2613
sS'qseq'
p2614
S'DVEKGKKIFVQKCAQCHTVEKGGKHKTGPNLHGLFGRKTGQAPGFTYTDANKNK---GITWKEETLMEYLENPKKY--------------IPGTKMIFAGIKKKTEREDLIAYL'
p2615
sS'hit-to'
p2616
I110
stp2617
a(F38.144329896907216
F88.46153846153847
(dp2618
g23
F38.144329896907216
sg2595
I0
sg2596
I2
sg2597
g11
sg2598
I22
sg2599
I2
sg2600
I98
sg2601
I37
sg2602
g2603
sg2604
I114
sg34
S'Chain A, Rhodopseudomonas Palustris Cyt C2 Ammonia Complex At 1.15 Angstrom Resolution'
p2619
sg36
F88.46153846153847
sg2606
I57
sg2607
F6.88719e-14
sg39
g60
sg2608
I0
sg42
S'1i8o'
p2620
sg2610
F64.3142
sg2611
F155.0
sg46
I104
sg47
F88.46153846153847
sg2612
g2613
sg2614
g2615
sg2616
I110
stp2621
a(F38.144329896907216
F88.46153846153847
(dp2622
g23
F38.144329896907216
sg2595
I0
sg2596
I2
sg2597
g11
sg2598
I22
sg2599
I2
sg2600
I98
sg2601
I37
sg2602
g2603
sg2604
I114
sg34
S'Chain A, Structure Determination Of The Ferrocytochrome C2 From Rhodopseudomonas Palustris'
p2623
sg36
F88.46153846153847
sg2606
I57
sg2607
F6.88719e-14
sg39
g60
sg2608
I0
sg42
S'1i8p'
p2624
sg2610
F64.3142
sg2611
F155.0
sg46
I104
sg47
F88.46153846153847
sg2612
g2613
sg2614
g2615
sg2616
I110
stp2625
a(F38.144329896907216
F88.46153846153847
(dp2626
g23
F38.144329896907216
sg2595
I0
sg2596
I2
sg2597
g11
sg2598
I22
sg2599
I2
sg2600
I98
sg2601
I37
sg2602
g2603
sg2604
I114
sg34
S'Chain B, Structure Determination Of The Ferrocytochrome C2 From Rhodopseudomonas Palustris'
p2627
sg36
F88.46153846153847
sg2606
I57
sg2607
F6.88719e-14
sg39
g40
sg2608
I0
sg42
S'1i8p'
p2628
sg2610
F64.3142
sg2611
F155.0
sg46
I104
sg47
F88.46153846153847
sg2612
g2613
sg2614
g2615
sg2616
I110
stp2629
a(F38.144329896907216
F88.46153846153847
(dp2630
g23
F38.144329896907216
sg2595
I0
sg2596
I2
sg2597
g11
sg2598
I22
sg2599
I2
sg2600
I98
sg2601
I37
sg2602
g2603
sg2604
I114
sg34
S'Chain C, Structure Determination Of The Ferrocytochrome C2 From Rhodopseudomonas Palustris'
p2631
sg36
F88.46153846153847
sg2606
I57
sg2607
F6.88719e-14
sg39
g109
sg2608
I0
sg42
S'1i8p'
p2632
sg2610
F64.3142
sg2611
F155.0
sg46
I104
sg47
F88.46153846153847
sg2612
g2613
sg2614
g2615
sg2616
I110
stp2633
a(F38.144329896907216
F88.46153846153847
(dp2634
g23
F38.144329896907216
sg2595
I0
sg2596
I2
sg2597
g11
sg2598
I22
sg2599
I2
sg2600
I98
sg2601
I37
sg2602
g2603
sg2604
I114
sg34
S'Chain D, Structure Determination Of The Ferrocytochrome C2 From Rhodopseudomonas Palustris'
p2635
sg36
F88.46153846153847
sg2606
I57
sg2607
F6.88719e-14
sg39
g114
sg2608
I0
sg42
S'1i8p'
p2636
sg2610
F64.3142
sg2611
F155.0
sg46
I104
sg47
F88.46153846153847
sg2612
g2613
sg2614
g2615
sg2616
I110
stp2637
a(F38.144329896907216
F88.46153846153847
(dp2638
g23
F38.144329896907216
sg2595
I0
sg2596
I2
sg2597
g11
sg2598
I22
sg2599
I2
sg2600
I98
sg2601
I37
sg2602
g2603
sg2604
I114
sg34
S'Chain A, Structure Determination Of The Ferricytochrome C2 From Rhodopseudomonas Palustris'
p2639
sg36
F88.46153846153847
sg2606
I57
sg2607
F6.88719e-14
sg39
g60
sg2608
I0
sg42
S'1fj0'
p2640
sg2610
F64.3142
sg2611
F155.0
sg46
I104
sg47
F88.46153846153847
sg2612
g2613
sg2614
g2615
sg2616
I110
stp2641
a(F38.144329896907216
F88.46153846153847
(dp2642
g23
F38.144329896907216
sg2595
I0
sg2596
I2
sg2597
g11
sg2598
I22
sg2599
I2
sg2600
I98
sg2601
I37
sg2602
g2603
sg2604
I114
sg34
S'Chain B, Structure Determination Of The Ferricytochrome C2 From Rhodopseudomonas Palustris'
p2643
sg36
F88.46153846153847
sg2606
I57
sg2607
F6.88719e-14
sg39
g40
sg2608
I0
sg42
S'1fj0'
p2644
sg2610
F64.3142
sg2611
F155.0
sg46
I104
sg47
F88.46153846153847
sg2612
g2613
sg2614
g2615
sg2616
I110
stp2645
a(F38.144329896907216
F88.46153846153847
(dp2646
g23
F38.144329896907216
sg2595
I0
sg2596
I2
sg2597
g11
sg2598
I22
sg2599
I2
sg2600
I98
sg2601
I37
sg2602
g2603
sg2604
I114
sg34
S'Chain C, Structure Determination Of The Ferricytochrome C2 From Rhodopseudomonas Palustris'
p2647
sg36
F88.46153846153847
sg2606
I57
sg2607
F6.88719e-14
sg39
g109
sg2608
I0
sg42
S'1fj0'
p2648
sg2610
F64.3142
sg2611
F155.0
sg46
I104
sg47
F88.46153846153847
sg2612
g2613
sg2614
g2615
sg2616
I110
stp2649
a(F38.144329896907216
F88.46153846153847
(dp2650
g23
F38.144329896907216
sg2595
I0
sg2596
I2
sg2597
g11
sg2598
I22
sg2599
I2
sg2600
I98
sg2601
I37
sg2602
g2603
sg2604
I114
sg34
S'Chain D, Structure Determination Of The Ferricytochrome C2 From Rhodopseudomonas Palustris'
p2651
sg36
F88.46153846153847
sg2606
I57
sg2607
F6.88719e-14
sg39
g114
sg2608
I0
sg42
S'1fj0'
p2652
sg2610
F64.3142
sg2611
F155.0
sg46
I104
sg47
F88.46153846153847
sg2612
g2613
sg2614
g2615
sg2616
I110
stp2653
a(F35.483870967741936
F26.923076923076923
(dp2654
g23
F35.483870967741936
sS'query-frame'
p2655
I0
sS'hit-from'
p2656
I1
sS'num'
p2657
g11
sS'gaps'
p2658
I3
sS'query-from'
p2659
I1
sS'query-to'
p2660
I31
sS'identity'
p2661
I11
sS'midline'
p2662
S' D++ G+K+F   CA CH    GG +   P+'
p2663
sS'align-len'
p2664
I31
sg34
S'ChainA, Crystal Structure Of Cytochrome C6 From Red Alga Porphyra Yezoensis At 1.57 A Resolution'
p2665
sg36
F26.923076923076923
sS'positive'
p2666
I17
sS'evalue'
p2667
F0.257202
sg39
g60
sS'hit-frame'
p2668
I0
sg42
S'1gdv'
p2669
sS'bit-score'
p2670
F28.8758
sS'score'
p2671
F63.0
sg46
I104
sg47
F26.923076923076923
sS'hseq'
p2672
S'ADLDNGEKVFSANCAACHA---GGNNAIMPD'
p2673
sS'qseq'
p2674
S'GDVEKGKKIFVQKCAQCHTVEKGGKHKTGPN'
p2675
sS'hit-to'
p2676
I28
stp2677
a(F35.483870967741936
F26.923076923076923
(dp2678
g23
F35.483870967741936
sS'query-frame'
p2679
I0
sS'hit-from'
p2680
I2
sS'num'
p2681
g11
sS'gaps'
p2682
I3
sS'query-from'
p2683
I1
sS'query-to'
p2684
I31
sS'identity'
p2685
I11
sS'midline'
p2686
S' D+  GK+ F   CA CH    GG +   P+'
p2687
sS'align-len'
p2688
I31
sg34
S'ChainA, Crystal Structure Of Oxidized Cytochrome C6 From The Green Algae Scenedesmus Obliquus'
p2689
sg36
F26.923076923076923
sS'positive'
p2690
I15
sS'evalue'
p2691
F9.21905
sg39
g60
sS'hit-frame'
p2692
I0
sg42
S'1c6o'
p2693
sS'bit-score'
p2694
F25.0238
sS'score'
p2695
F53.0
sg46
I104
sg47
F26.923076923076923
sS'hseq'
p2696
S'ADLALGKQTFEANCAACHA---GGNNSVIPD'
p2697
sS'qseq'
p2698
S'GDVEKGKKIFVQKCAQCHTVEKGGKHKTGPN'
p2699
sS'hit-to'
p2700
I29
stp2701
a(F35.483870967741936
F26.923076923076923
(dp2702
g23
F35.483870967741936
sg2679
I0
sg2680
I2
sg2681
g11
sg2682
I3
sg2683
I1
sg2684
I31
sg2685
I11
sg2686
g2687
sg2688
I31
sg34
S'Chain B, Crystal Structure Of Oxidized Cytochrome C6 From The Green Algae Scenedesmus Obliquus'
p2703
sg36
F26.923076923076923
sg2690
I15
sg2691
F9.21905
sg39
g40
sg2692
I0
sg42
S'1c6o'
p2704
sg2694
F25.0238
sg2695
F53.0
sg46
I104
sg47
F26.923076923076923
sg2696
g2697
sg2698
g2699
sg2700
I29
stp2705
a(F35.483870967741936
F26.923076923076923
(dp2706
g23
F35.483870967741936
sg2679
I0
sg2680
I2
sg2681
g11
sg2682
I3
sg2683
I1
sg2684
I31
sg2685
I11
sg2686
g2687
sg2688
I31
sg34
S'Chain A, Crystal Structure Of Reduced Cytochrome C6 From The Green Algae Scenedesmus Obliquus'
p2707
sg36
F26.923076923076923
sg2690
I15
sg2691
F9.21905
sg39
g60
sg2692
I0
sg42
S'1c6r'
p2708
sg2694
F25.0238
sg2695
F53.0
sg46
I104
sg47
F26.923076923076923
sg2696
g2697
sg2698
g2699
sg2700
I29
stp2709
a(F34.48275862068966
F25.0
(dp2710
g23
F34.48275862068966
sS'query-frame'
p2711
I0
sS'hit-from'
p2712
I35
sS'num'
p2713
g11
sS'gaps'
p2714
I3
sS'query-from'
p2715
I2
sS'query-to'
p2716
I30
sS'identity'
p2717
I10
sS'midline'
p2718
S'D+ +GK++F + C  CH    GG     P'
p2719
sS'align-len'
p2720
I29
sg34
S'ChainA, Crystal Structure At 1.5 Angstrom Resolution Of The Psbv2 Cytochrome From The Cyanobacterium Thermosynechococcus Elongatus'
p2721
sg36
F25.0
sS'positive'
p2722
I15
sS'evalue'
p2723
F8.39269
sg39
g60
sS'hit-frame'
p2724
I0
sg42
S'4lji'
p2725
sS'bit-score'
p2726
F25.409
sS'score'
p2727
F54.0
sg46
I104
sg47
F25.0
sS'hseq'
p2728
S'DLTRGKRLFEENCKNCHV---GGSTLPNP'
p2729
sS'qseq'
p2730
S'DVEKGKKIFVQKCAQCHTVEKGGKHKTGP'
p2731
sS'hit-to'
p2732
I60
stp2733
a(F34.48275862068966
F25.0
(dp2734
g23
F34.48275862068966
sg2711
I0
sg2712
I35
sg2713
g11
sg2714
I3
sg2715
I2
sg2716
I30
sg2717
I10
sg2718
g2719
sg2720
I29
sg34
S'Chain B, Crystal Structure At 1.5 Angstrom Resolution Of The Psbv2 Cytochrome From The Cyanobacterium Thermosynechococcus Elongatus'
p2735
sg36
F25.0
sg2722
I15
sg2723
F8.39269
sg39
g40
sg2724
I0
sg42
S'4lji'
p2736
sg2726
F25.409
sg2727
F54.0
sg46
I104
sg47
F25.0
sg2728
g2729
sg2730
g2731
sg2732
I60
stp2737
a(F34.375
F27.884615384615383
(dp2738
g23
F34.375
sS'query-frame'
p2739
I0
sS'hit-from'
p2740
I23
sS'num'
p2741
g11
sS'gaps'
p2742
I3
sS'query-from'
p2743
I2
sS'query-to'
p2744
I33
sS'identity'
p2745
I11
sS'midline'
p2746
S'+++KG+++F   CAQCH +   G  +T P+++'
p2747
sS'align-len'
p2748
I32
sg34
S'ChainA, Crystal Structure Of Cytochrome C549'
p2749
sg36
F27.884615384615383
sS'positive'
p2750
I22
sS'evalue'
p2751
F0.146113
sg39
g60
sS'hit-frame'
p2752
I0
sg42
S'1f1c'
p2753
sS'bit-score'
p2754
F30.4166
sS'score'
p2755
F67.0
sg46
I104
sg47
F27.884615384615383
sS'hseq'
p2756
S'EIKKGQQVFNAACAQCHAL---GVTRTNPDVN'
p2757
sS'qseq'
p2758
S'DVEKGKKIFVQKCAQCHTVEKGGKHKTGPNLH'
p2759
sS'hit-to'
p2760
I51
stp2761
a(F34.375
F27.884615384615383
(dp2762
g23
F34.375
sg2739
I0
sg2740
I23
sg2741
g11
sg2742
I3
sg2743
I2
sg2744
I33
sg2745
I11
sg2746
g2747
sg2748
I32
sg34
S'Chain B, Crystal Structure Of Cytochrome C549'
p2763
sg36
F27.884615384615383
sg2750
I22
sg2751
F0.146113
sg39
g40
sg2752
I0
sg42
S'1f1c'
p2764
sg2754
F30.4166
sg2755
F67.0
sg46
I104
sg47
F27.884615384615383
sg2756
g2757
sg2758
g2759
sg2760
I51
stp2765
a(F34.146341463414636
F37.5
(dp2766
g23
F34.146341463414636
sS'query-frame'
p2767
I0
sS'hit-from'
p2768
I35
sS'num'
p2769
g11
sS'gaps'
p2770
I2
sS'query-from'
p2771
I2
sS'query-to'
p2772
I42
sS'identity'
p2773
I14
sS'midline'
p2774
S'+  + K+I+ Q+CA CH V + G   TG  L     ++ GQ'
p2775
sS'align-len'
p2776
I41
sg34
S'ChainA, Domain Swing Upon His To Ala Mutation In Nitrite Reductase Of Pseudomonas Aeruginosa'
p2777
sg36
F37.5
sS'positive'
p2778
I22
sS'evalue'
p2779
F6.63665
sg39
g60
sS'hit-frame'
p2780
I0
sg42
S'1hzu'
p2781
sS'bit-score'
p2782
F26.1794
sS'score'
p2783
F56.0
sg46
I104
sg47
F37.5
sS'hseq'
p2784
S'EFNEAKQIYFQRCAGCHGVLRKG--ATGKPLTPDITQQRGQ'
p2785
sS'qseq'
p2786
S'DVEKGKKIFVQKCAQCHTVEKGGKHKTGPNLHGLFGRKTGQ'
p2787
sS'hit-to'
p2788
I73
stp2789
a(F34.146341463414636
F37.5
(dp2790
g23
F34.146341463414636
sS'query-frame'
p2791
I0
sS'hit-from'
p2792
I35
sS'num'
p2793
g11
sS'gaps'
p2794
I2
sS'query-from'
p2795
I2
sS'query-to'
p2796
I42
sS'identity'
p2797
I14
sS'midline'
p2798
S'+  + K+I+ Q+CA CH V + G   TG  L     ++ GQ'
p2799
sS'align-len'
p2800
I41
sg34
S'ChainA, Domain Swing Upon His To Ala Mutation In Nitrite Reductase Of Pseudomonas Aeruginosa'
p2801
sg36
F37.5
sS'positive'
p2802
I22
sS'evalue'
p2803
F6.63665
sg39
g60
sS'hit-frame'
p2804
I0
sg42
S'1hzv'
p2805
sS'bit-score'
p2806
F26.1794
sS'score'
p2807
F56.0
sg46
I104
sg47
F37.5
sS'hseq'
p2808
S'EFNEAKQIYFQRCAGCHGVLRKG--ATGKPLTPDITQQRGQ'
p2809
sS'qseq'
p2810
S'DVEKGKKIFVQKCAQCHTVEKGGKHKTGPNLHGLFGRKTGQ'
p2811
sS'hit-to'
p2812
I73
stp2813
a(F34.146341463414636
F37.5
(dp2814
g23
F34.146341463414636
sS'query-frame'
p2815
I0
sS'hit-from'
p2816
I35
sS'num'
p2817
g11
sS'gaps'
p2818
I2
sS'query-from'
p2819
I2
sS'query-to'
p2820
I42
sS'identity'
p2821
I14
sS'midline'
p2822
S'+  + K+I+ Q+CA CH V + G   TG  L     ++ GQ'
p2823
sS'align-len'
p2824
I41
sg34
S'ChainA, Oxydized Nitrite Reductase From Pseudomonas Aeruginosa'
p2825
sg36
F37.5
sS'positive'
p2826
I22
sS'evalue'
p2827
F6.90031
sg39
g60
sS'hit-frame'
p2828
I0
sg42
S'1nir'
p2829
sS'bit-score'
p2830
F26.1794
sS'score'
p2831
F56.0
sg46
I104
sg47
F37.5
sS'hseq'
p2832
S'EFNEAKQIYFQRCAGCHGVLRKG--ATGKPLTPDITQQRGQ'
p2833
sS'qseq'
p2834
S'DVEKGKKIFVQKCAQCHTVEKGGKHKTGPNLHGLFGRKTGQ'
p2835
sS'hit-to'
p2836
I73
stp2837
a(F34.146341463414636
F37.5
(dp2838
g23
F34.146341463414636
sg2815
I0
sg2816
I35
sg2817
g11
sg2818
I2
sg2819
I2
sg2820
I42
sg2821
I14
sg2822
g2823
sg2824
I41
sg34
S'Chain B, Oxydized Nitrite Reductase From Pseudomonas Aeruginosa'
p2839
sg36
F37.5
sg2826
I22
sg2827
F6.90031
sg39
g40
sg2828
I0
sg42
S'1nir'
p2840
sg2830
F26.1794
sg2831
F56.0
sg46
I104
sg47
F37.5
sg2832
g2833
sg2834
g2835
sg2836
I73
stp2841
a(F34.146341463414636
F37.5
(dp2842
g23
F34.146341463414636
sg2815
I0
sg2816
I35
sg2817
g11
sg2818
I2
sg2819
I2
sg2820
I42
sg2821
I14
sg2822
g2823
sg2824
I41
sg34
S'Chain A, Conformational Changes Occurring Upon Reduction In Nitrite Reductase From Pseudomonas Aeruginosa'
p2843
sg36
F37.5
sg2826
I22
sg2827
F6.90031
sg39
g60
sg2828
I0
sg42
S'1bl9'
p2844
sg2830
F26.1794
sg2831
F56.0
sg46
I104
sg47
F37.5
sg2832
g2833
sg2834
g2835
sg2836
I73
stp2845
a(F34.146341463414636
F37.5
(dp2846
g23
F34.146341463414636
sg2815
I0
sg2816
I35
sg2817
g11
sg2818
I2
sg2819
I2
sg2820
I42
sg2821
I14
sg2822
g2823
sg2824
I41
sg34
S'Chain B, Conformational Changes Occurring Upon Reduction In Nitrite Reductase From Pseudomonas Aeruginosa'
p2847
sg36
F37.5
sg2826
I22
sg2827
F6.90031
sg39
g40
sg2828
I0
sg42
S'1bl9'
p2848
sg2830
F26.1794
sg2831
F56.0
sg46
I104
sg47
F37.5
sg2832
g2833
sg2834
g2835
sg2836
I73
stp2849
a(F34.146341463414636
F37.5
(dp2850
g23
F34.146341463414636
sg2815
I0
sg2816
I35
sg2817
g11
sg2818
I2
sg2819
I2
sg2820
I42
sg2821
I14
sg2822
g2823
sg2824
I41
sg34
S'Chain A, Conformational Changes Occurring Upon No Binding In Nitrite Reductase From Pseudomonas Aeruginosa'
p2851
sg36
F37.5
sg2826
I22
sg2827
F6.90031
sg39
g60
sg2828
I0
sg42
S'1nno'
p2852
sg2830
F26.1794
sg2831
F56.0
sg46
I104
sg47
F37.5
sg2832
g2833
sg2834
g2835
sg2836
I73
stp2853
a(F34.146341463414636
F37.5
(dp2854
g23
F34.146341463414636
sg2815
I0
sg2816
I35
sg2817
g11
sg2818
I2
sg2819
I2
sg2820
I42
sg2821
I14
sg2822
g2823
sg2824
I41
sg34
S'Chain B, Conformational Changes Occurring Upon No Binding In Nitrite Reductase From Pseudomonas Aeruginosa'
p2855
sg36
F37.5
sg2826
I22
sg2827
F6.90031
sg39
g40
sg2828
I0
sg42
S'1nno'
p2856
sg2830
F26.1794
sg2831
F56.0
sg46
I104
sg47
F37.5
sg2832
g2833
sg2834
g2835
sg2836
I73
stp2857
a(F34.146341463414636
F37.5
(dp2858
g23
F34.146341463414636
sg2815
I0
sg2816
I35
sg2817
g11
sg2818
I2
sg2819
I2
sg2820
I42
sg2821
I14
sg2822
g2823
sg2824
I41
sg34
S'Chain A, Following The C Heme Reduction In Nitrite Reductase From Pseudomonas Aeruginosa'
p2859
sg36
F37.5
sg2826
I22
sg2827
F6.90031
sg39
g60
sg2828
I0
sg42
S'1n15'
p2860
sg2830
F26.1794
sg2831
F56.0
sg46
I104
sg47
F37.5
sg2832
g2833
sg2834
g2835
sg2836
I73
stp2861
a(F34.146341463414636
F37.5
(dp2862
g23
F34.146341463414636
sg2815
I0
sg2816
I35
sg2817
g11
sg2818
I2
sg2819
I2
sg2820
I42
sg2821
I14
sg2822
g2823
sg2824
I41
sg34
S'Chain B, Following The C Heme Reduction In Nitrite Reductase From Pseudomonas Aeruginosa'
p2863
sg36
F37.5
sg2826
I22
sg2827
F6.90031
sg39
g40
sg2828
I0
sg42
S'1n15'
p2864
sg2830
F26.1794
sg2831
F56.0
sg46
I104
sg47
F37.5
sg2832
g2833
sg2834
g2835
sg2836
I73
stp2865
a(F34.146341463414636
F37.5
(dp2866
g23
F34.146341463414636
sg2815
I0
sg2816
I35
sg2817
g11
sg2818
I2
sg2819
I2
sg2820
I42
sg2821
I14
sg2822
g2823
sg2824
I41
sg34
S'Chain A, Following The C Heme Reduction In Nitrite Reductase From Pseudomonas Aeruginosa'
p2867
sg36
F37.5
sg2826
I22
sg2827
F6.90031
sg39
g60
sg2828
I0
sg42
S'1n50'
p2868
sg2830
F26.1794
sg2831
F56.0
sg46
I104
sg47
F37.5
sg2832
g2833
sg2834
g2835
sg2836
I73
stp2869
a(F34.146341463414636
F37.5
(dp2870
g23
F34.146341463414636
sg2815
I0
sg2816
I35
sg2817
g11
sg2818
I2
sg2819
I2
sg2820
I42
sg2821
I14
sg2822
g2823
sg2824
I41
sg34
S'Chain B, Following The C Heme Reduction In Nitrite Reductase From Pseudomonas Aeruginosa'
p2871
sg36
F37.5
sg2826
I22
sg2827
F6.90031
sg39
g40
sg2828
I0
sg42
S'1n50'
p2872
sg2830
F26.1794
sg2831
F56.0
sg46
I104
sg47
F37.5
sg2832
g2833
sg2834
g2835
sg2836
I73
stp2873
a(F34.146341463414636
F37.5
(dp2874
g23
F34.146341463414636
sg2815
I0
sg2816
I35
sg2817
g11
sg2818
I2
sg2819
I2
sg2820
I42
sg2821
I14
sg2822
g2823
sg2824
I41
sg34
S'Chain A, Following The C Heme Reduction In Nitrite Reductase From Pseudomonas Aeruginosa'
p2875
sg36
F37.5
sg2826
I22
sg2827
F6.90031
sg39
g60
sg2828
I0
sg42
S'1n90'
p2876
sg2830
F26.1794
sg2831
F56.0
sg46
I104
sg47
F37.5
sg2832
g2833
sg2834
g2835
sg2836
I73
stp2877
a(F34.146341463414636
F37.5
(dp2878
g23
F34.146341463414636
sg2815
I0
sg2816
I35
sg2817
g11
sg2818
I2
sg2819
I2
sg2820
I42
sg2821
I14
sg2822
g2823
sg2824
I41
sg34
S'Chain B, Following The C Heme Reduction In Nitrite Reductase From Pseudomonas Aeruginosa'
p2879
sg36
F37.5
sg2826
I22
sg2827
F6.90031
sg39
g40
sg2828
I0
sg42
S'1n90'
p2880
sg2830
F26.1794
sg2831
F56.0
sg46
I104
sg47
F37.5
sg2832
g2833
sg2834
g2835
sg2836
I73
stp2881
a(F34.146341463414636
F37.5
(dp2882
g23
F34.146341463414636
sg2815
I0
sg2816
I35
sg2817
g11
sg2818
I2
sg2819
I2
sg2820
I42
sg2821
I14
sg2822
g2823
sg2824
I41
sg34
S'Chain A, Pseudomonas Aeruginosa Cd1 Nitrite Reductase Reduced Cyanide Complex'
p2883
sg36
F37.5
sg2826
I22
sg2827
F6.90031
sg39
g60
sg2828
I0
sg42
S'1gjq'
p2884
sg2830
F26.1794
sg2831
F56.0
sg46
I104
sg47
F37.5
sg2832
g2833
sg2834
g2835
sg2836
I73
stp2885
a(F34.146341463414636
F37.5
(dp2886
g23
F34.146341463414636
sg2815
I0
sg2816
I35
sg2817
g11
sg2818
I2
sg2819
I2
sg2820
I42
sg2821
I14
sg2822
g2823
sg2824
I41
sg34
S'Chain B, Pseudomonas Aeruginosa Cd1 Nitrite Reductase Reduced Cyanide Complex'
p2887
sg36
F37.5
sg2826
I22
sg2827
F6.90031
sg39
g40
sg2828
I0
sg42
S'1gjq'
p2888
sg2830
F26.1794
sg2831
F56.0
sg46
I104
sg47
F37.5
sg2832
g2833
sg2834
g2835
sg2836
I73
stp2889
a(F33.333333333333336
F25.96153846153846
(dp2890
g23
F33.333333333333336
sS'query-frame'
p2891
I0
sS'hit-from'
p2892
I1
sS'num'
p2893
g11
sS'gaps'
p2894
I3
sS'query-from'
p2895
I1
sS'query-to'
p2896
I30
sS'identity'
p2897
I10
sS'midline'
p2898
S' D+  G ++F   CA CH    GG++   P'
p2899
sS'align-len'
p2900
I30
sg34
S'ChainA, Cytochrome C6'
p2901
sg36
F25.96153846153846
sS'positive'
p2902
I15
sS'evalue'
p2903
F9.93586
sg39
g60
sS'hit-frame'
p2904
I0
sg42
S'1cyi'
p2905
sS'bit-score'
p2906
F25.0238
sS'score'
p2907
F53.0
sg46
I104
sg47
F25.96153846153846
sS'hseq'
p2908
S'ADLALGAQVFNGNCAACHM---GGRNSVMP'
p2909
sS'qseq'
p2910
S'GDVEKGKKIFVQKCAQCHTVEKGGKHKTGP'
p2911
sS'hit-to'
p2912
I27
stp2913
a(F33.333333333333336
F25.96153846153846
(dp2914
g23
F33.333333333333336
sg2891
I0
sg2892
I1
sg2893
g11
sg2894
I3
sg2895
I1
sg2896
I30
sg2897
I10
sg2898
g2899
sg2900
I30
sg34
S'Chain A, Cytochrome C6'
p2915
sg36
F25.96153846153846
sg2902
I15
sg2903
F9.93586
sg39
g60
sg2904
I0
sg42
S'1cyj'
p2916
sg2906
F25.0238
sg2907
F53.0
sg46
I104
sg47
F25.96153846153846
sg2908
g2909
sg2910
g2911
sg2912
I27
stp2917
a(F32.857142857142854
F52.88461538461539
(dp2918
g23
F32.857142857142854
sS'query-frame'
p2919
I0
sS'hit-from'
p2920
I28
sS'num'
p2921
g11
sS'gaps'
p2922
I15
sS'query-from'
p2923
I5
sS'query-to'
p2924
I74
sS'identity'
p2925
I23
sS'midline'
p2926
S' G+KIFV  C QCH     GK KT  N+        G  P        +   +      L+E+L+NPK Y'
p2927
sS'align-len'
p2928
I70
sg34
S'ChainA, Psii Associated Cytochrome C549 From Synechocystis Sp.'
p2929
sg36
F52.88461538461539
sS'positive'
p2930
I30
sS'evalue'
p2931
F0.0048938
sg39
g60
sS'hit-frame'
p2932
I0
sg42
S'1e29'
p2933
sS'bit-score'
p2934
F34.2686
sS'score'
p2935
F77.0
sg46
I104
sg47
F52.88461538461539
sS'hseq'
p2936
S'NGQKIFVDTCTQCHL---QGKTKTNNNVSLGLADLAGAEP--------RRDNVL----ALVEFLKNPKSY'
p2937
sS'qseq'
p2938
S'KGKKIFVQKCAQCHTVEKGGKHKTGPNLHGLFGRKTGQAPGFTYTDANKNKGITWKEETLMEYLENPKKY'
p2939
sS'hit-to'
p2940
I82
stp2941
a(F31.25
F78.84615384615384
(dp2942
g23
F31.25
sS'query-frame'
p2943
I0
sS'hit-from'
p2944
I237
sS'num'
p2945
g11
sS'gaps'
p2946
I15
sS'query-from'
p2947
I4
sS'query-to'
p2948
I99
sS'identity'
p2949
I30
sS'midline'
p2950
S'E+G+++F Q CA CH V +       GP L GL+G +T    G           +    E L  ++ +P    PG KM   G  + +E EDL A ++'
p2951
sS'align-len'
p2952
I97
sg34
S'ChainB, Structure Of Caa3-Type Cytochrome Oxidase'
p2953
sg36
F78.84615384615384
sS'positive'
p2954
I45
sS'evalue'
p2955
F7.29583e-05
sg39
g40
sS'hit-frame'
p2956
I0
sg42
S'2yev'
p2957
sS'bit-score'
p2958
F40.4318
sS'score'
p2959
F93.0
sg46
I104
sg47
F78.84615384615384
sS'hseq'
p2960
S'ERGQQVFQQNCAACHGVARSMPPAVIGPEL-GLWGNRTSLGAGI----------VENTPENLKAWIRDPAGMKPGVKM--PGFPQLSE-EDLDALVR'
p2961
sS'qseq'
p2962
S'EKGKKIFVQKCAQCHTVEKGGKHKT-GPNLHGLFGRKTGQAPGFTYTDANKNKGITWKEETLMEYLENPKKYIPGTKMIFAGIKKKTEREDLIAYLK'
p2963
sS'hit-to'
p2964
I319
stp2965
a(F31.25
F78.84615384615384
(dp2966
g23
F31.25
sg2943
I0
sg2944
I237
sg2945
g11
sg2946
I15
sg2947
I4
sg2948
I99
sg2949
I30
sg2950
g2951
sg2952
I97
sg34
S'Chain E, Structure Of Caa3-Type Cytochrome Oxidase'
p2967
sg36
F78.84615384615384
sg2954
I45
sg2955
F7.29583e-05
sg39
g135
sg2956
I0
sg42
S'2yev'
p2968
sg2958
F40.4318
sg2959
F93.0
sg46
I104
sg47
F78.84615384615384
sg2960
g2961
sg2962
g2963
sg2964
I319
stp2969
a(F29.78723404255319
F38.46153846153846
(dp2970
g23
F29.78723404255319
sS'query-frame'
p2971
I0
sS'hit-from'
p2972
I221
sS'num'
p2973
g11
sS'gaps'
p2974
I7
sS'query-from'
p2975
I2
sS'query-to'
p2976
I48
sS'identity'
p2977
I14
sS'midline'
p2978
S'D+  GK ++ Q CA CH        + G  +  L   K   A G+ Y'
p2979
sS'align-len'
p2980
I47
sg34
S'ChainC, The Structure Of Cbb3 Cytochrome Oxidase'
p2981
sg36
F38.46153846153846
sS'positive'
p2982
I20
sS'evalue'
p2983
F1.4304
sg39
g109
sS'hit-frame'
p2984
I0
sg42
S'3mk7'
p2985
sS'bit-score'
p2986
F28.1054
sS'score'
p2987
F61.0
sg46
I104
sg47
F38.46153846153846
sS'hseq'
p2988
S'DLSAGKNVYAQTCAVCHG-------QGGEGMAALGAPKLNSAAGWIY'
p2989
sS'qseq'
p2990
S'DVEKGKKIFVQKCAQCHTVEKGGKHKTGPNLHGLFGRKTGQAPGFTY'
p2991
sS'hit-to'
p2992
I260
stp2993
a(F29.78723404255319
F38.46153846153846
(dp2994
g23
F29.78723404255319
sg2971
I0
sg2972
I221
sg2973
g11
sg2974
I7
sg2975
I2
sg2976
I48
sg2977
I14
sg2978
g2979
sg2980
I47
sg34
S'Chain F, The Structure Of Cbb3 Cytochrome Oxidase'
p2995
sg36
F38.46153846153846
sg2982
I20
sg2983
F1.4304
sg39
g9
sg2984
I0
sg42
S'3mk7'
p2996
sg2986
F28.1054
sg2987
F61.0
sg46
I104
sg47
F38.46153846153846
sg2988
g2989
sg2990
g2991
sg2992
I260
stp2997
a(F29.78723404255319
F38.46153846153846
(dp2998
g23
F29.78723404255319
sg2971
I0
sg2972
I221
sg2973
g11
sg2974
I7
sg2975
I2
sg2976
I48
sg2977
I14
sg2978
g2979
sg2980
I47
sg34
S'Chain I, The Structure Of Cbb3 Cytochrome Oxidase'
p2999
sg36
F38.46153846153846
sg2982
I20
sg2983
F1.4304
sg39
g266
sg2984
I0
sg42
S'3mk7'
p3000
sg2986
F28.1054
sg2987
F61.0
sg46
I104
sg47
F38.46153846153846
sg2988
g2989
sg2990
g2991
sg2992
I260
stp3001
a(F29.78723404255319
F38.46153846153846
(dp3002
g23
F29.78723404255319
sg2971
I0
sg2972
I221
sg2973
g11
sg2974
I7
sg2975
I2
sg2976
I48
sg2977
I14
sg2978
g2979
sg2980
I47
sg34
S'Chain M, The Structure Of Cbb3 Cytochrome Oxidase'
p3003
sg36
F38.46153846153846
sg2982
I20
sg2983
F1.4304
sg39
g286
sg2984
I0
sg42
S'3mk7'
p3004
sg2986
F28.1054
sg2987
F61.0
sg46
I104
sg47
F38.46153846153846
sg2988
g2989
sg2990
g2991
sg2992
I260
stp3005
a(F29.62962962962963
F47.11538461538461
(dp3006
g23
F29.62962962962963
sS'query-frame'
p3007
I0
sS'hit-from'
p3008
I2
sS'num'
p3009
g11
sS'gaps'
p3010
I5
sS'query-from'
p3011
I2
sS'query-to'
p3012
I55
sS'identity'
p3013
I16
sS'midline'
p3014
S'D+++G +IF   CA CH +  G   + G NL     ++     G+T  +A  N+'
p3015
sS'align-len'
p3016
I54
sg34
S'ChainA, Crystal Structure Of Cytochrome C6c L50q Mutant From Synechococcus Sp. Pcc 7002'
p3017
sg36
F47.11538461538461
sS'positive'
p3018
I27
sS'evalue'
p3019
F5.92763
sg39
g60
sS'hit-frame'
p3020
I0
sg42
S'4eif'
p3021
sS'bit-score'
p3022
F25.409
sS'score'
p3023
F54.0
sg46
I104
sg47
F47.11538461538461
sS'hseq'
p3024
S'DLDQGAQIFEAHCAGCH-LNGGNIVRRGKNLK----KRAMAKNGYTSVEAIANQ'
p3025
sS'qseq'
p3026
S'DVEKGKKIFVQKCAQCHTVEKGGKHKTGPNLHGLFGRKTGQAPGFTYTDANKNK'
p3027
sS'hit-to'
p3028
I50
stp3029
a(F28.571428571428573
F74.03846153846153
(dp3030
g23
F28.571428571428573
sS'query-frame'
p3031
I0
sS'hit-from'
p3032
I1
sS'num'
p3033
g11
sS'gaps'
p3034
I21
sS'query-from'
p3035
I1
sS'query-to'
p3036
I98
sS'identity'
p3037
I28
sS'midline'
p3038
S' D   G KIF   CA CH    GGK+               QA   T   A+  K   +  E ++  + N K  +P     F G  K  + ED+ AY+'
p3039
sS'align-len'
p3040
I98
sg34
S'ChainA, Nostoc Sp Cytochrome C6'
p3041
sg36
F74.03846153846153
sS'positive'
p3042
I38
sS'evalue'
p3043
F1.29654
sg39
g60
sS'hit-frame'
p3044
I0
sg42
S'4gyd'
p3045
sS'bit-score'
p3046
F27.335
sS'score'
p3047
F59.0
sg46
I104
sg47
F74.03846153846153
sS'hseq'
p3048
S'ADSVNGAKIFSANCASCHA---GGKNLV-------------QAQK-TLKKADLEKYGMYSAEAIIAQVTNGKNAMPA----FKGRLKPEQIEDVAAYV'
p3049
sS'qseq'
p3050
S'GDVEKGKKIFVQKCAQCHTVEKGGKHKTGPNLHGLFGRKTGQAPGFTYTDANKNKGITWKEETLMEYLENPKKYIPGTKMIFAGIKKKTEREDLIAYL'
p3051
sS'hit-to'
p3052
I77
stp3053
a(F28.571428571428573
F74.03846153846153
(dp3054
g23
F28.571428571428573
sg3031
I0
sg3032
I1
sg3033
g11
sg3034
I21
sg3035
I1
sg3036
I98
sg3037
I28
sg3038
g3039
sg3040
I98
sg34
S'Chain B, Nostoc Sp Cytochrome C6'
p3055
sg36
F74.03846153846153
sg3042
I38
sg3043
F1.29654
sg39
g40
sg3044
I0
sg42
S'4gyd'
p3056
sg3046
F27.335
sg3047
F59.0
sg46
I104
sg47
F74.03846153846153
sg3048
g3049
sg3050
g3051
sg3052
I77
stp3057
a(F28.571428571428573
F74.03846153846153
(dp3058
g23
F28.571428571428573
sg3031
I0
sg3032
I1
sg3033
g11
sg3034
I21
sg3035
I1
sg3036
I98
sg3037
I28
sg3038
g3039
sg3040
I98
sg34
S'Chain C, Nostoc Sp Cytochrome C6'
p3059
sg36
F74.03846153846153
sg3042
I38
sg3043
F1.29654
sg39
g109
sg3044
I0
sg42
S'4gyd'
p3060
sg3046
F27.335
sg3047
F59.0
sg46
I104
sg47
F74.03846153846153
sg3048
g3049
sg3050
g3051
sg3052
I77
stp3061
a(F28.571428571428573
F74.03846153846153
(dp3062
g23
F28.571428571428573
sg3031
I0
sg3032
I1
sg3033
g11
sg3034
I21
sg3035
I1
sg3036
I98
sg3037
I28
sg3038
g3039
sg3040
I98
sg34
S'Chain D, Nostoc Sp Cytochrome C6'
p3063
sg36
F74.03846153846153
sg3042
I38
sg3043
F1.29654
sg39
g114
sg3044
I0
sg42
S'4gyd'
p3064
sg3046
F27.335
sg3047
F59.0
sg46
I104
sg47
F74.03846153846153
sg3048
g3049
sg3050
g3051
sg3052
I77
stp3065
a(F28.571428571428573
F74.03846153846153
(dp3066
g23
F28.571428571428573
sg3031
I0
sg3032
I1
sg3033
g11
sg3034
I21
sg3035
I1
sg3036
I98
sg3037
I28
sg3038
g3039
sg3040
I98
sg34
S'Chain E, Nostoc Sp Cytochrome C6'
p3067
sg36
F74.03846153846153
sg3042
I38
sg3043
F1.29654
sg39
g135
sg3044
I0
sg42
S'4gyd'
p3068
sg3046
F27.335
sg3047
F59.0
sg46
I104
sg47
F74.03846153846153
sg3048
g3049
sg3050
g3051
sg3052
I77
stp3069
a(F28.571428571428573
F74.03846153846153
(dp3070
g23
F28.571428571428573
sg3031
I0
sg3032
I1
sg3033
g11
sg3034
I21
sg3035
I1
sg3036
I98
sg3037
I28
sg3038
g3039
sg3040
I98
sg34
S'Chain F, Nostoc Sp Cytochrome C6'
p3071
sg36
F74.03846153846153
sg3042
I38
sg3043
F1.29654
sg39
g9
sg3044
I0
sg42
S'4gyd'
p3072
sg3046
F27.335
sg3047
F59.0
sg46
I104
sg47
F74.03846153846153
sg3048
g3049
sg3050
g3051
sg3052
I77
stp3073
a(F28.571428571428573
F74.03846153846153
(dp3074
g23
F28.571428571428573
sS'query-frame'
p3075
I0
sS'hit-from'
p3076
I1
sS'num'
p3077
g11
sS'gaps'
p3078
I21
sS'query-from'
p3079
I1
sS'query-to'
p3080
I98
sS'identity'
p3081
I28
sS'midline'
p3082
S' D   G KIF   CA CH    GGK+               QA   T   A+  K   +  E ++  + N K   P     F G  K  + ED+ AY+'
p3083
sS'align-len'
p3084
I98
sg34
S'ChainA, Mutant M58c Of Nostoc Sp Cytochrome C6'
p3085
sg36
F74.03846153846153
sS'positive'
p3086
I37
sS'evalue'
p3087
F2.80695
sg39
g60
sS'hit-frame'
p3088
I0
sg42
S'4h0j'
p3089
sS'bit-score'
p3090
F26.5646
sS'score'
p3091
F57.0
sg46
I104
sg47
F74.03846153846153
sS'hseq'
p3092
S'ADSVNGAKIFSANCASCHA---GGKNLV-------------QAQK-TLKKADLEKYGMYSAEAIIAQVTNGKNACPA----FKGRLKPEQIEDVAAYV'
p3093
sS'qseq'
p3094
S'GDVEKGKKIFVQKCAQCHTVEKGGKHKTGPNLHGLFGRKTGQAPGFTYTDANKNKGITWKEETLMEYLENPKKYIPGTKMIFAGIKKKTEREDLIAYL'
p3095
sS'hit-to'
p3096
I77
stp3097
a(F28.571428571428573
F74.03846153846153
(dp3098
g23
F28.571428571428573
sg3075
I0
sg3076
I1
sg3077
g11
sg3078
I21
sg3079
I1
sg3080
I98
sg3081
I28
sg3082
g3083
sg3084
I98
sg34
S'Chain B, Mutant M58c Of Nostoc Sp Cytochrome C6'
p3099
sg36
F74.03846153846153
sg3086
I37
sg3087
F2.80695
sg39
g40
sg3088
I0
sg42
S'4h0j'
p3100
sg3090
F26.5646
sg3091
F57.0
sg46
I104
sg47
F74.03846153846153
sg3092
g3093
sg3094
g3095
sg3096
I77
stp3101
a(F28.571428571428573
F74.03846153846153
(dp3102
g23
F28.571428571428573
sg3075
I0
sg3076
I1
sg3077
g11
sg3078
I21
sg3079
I1
sg3080
I98
sg3081
I28
sg3082
g3083
sg3084
I98
sg34
S'Chain C, Mutant M58c Of Nostoc Sp Cytochrome C6'
p3103
sg36
F74.03846153846153
sg3086
I37
sg3087
F2.80695
sg39
g109
sg3088
I0
sg42
S'4h0j'
p3104
sg3090
F26.5646
sg3091
F57.0
sg46
I104
sg47
F74.03846153846153
sg3092
g3093
sg3094
g3095
sg3096
I77
stp3105
a(F28.571428571428573
F74.03846153846153
(dp3106
g23
F28.571428571428573
sg3075
I0
sg3076
I1
sg3077
g11
sg3078
I21
sg3079
I1
sg3080
I98
sg3081
I28
sg3082
g3083
sg3084
I98
sg34
S'Chain D, Mutant M58c Of Nostoc Sp Cytochrome C6'
p3107
sg36
F74.03846153846153
sg3086
I37
sg3087
F2.80695
sg39
g114
sg3088
I0
sg42
S'4h0j'
p3108
sg3090
F26.5646
sg3091
F57.0
sg46
I104
sg47
F74.03846153846153
sg3092
g3093
sg3094
g3095
sg3096
I77
stp3109
a(F28.571428571428573
F74.03846153846153
(dp3110
g23
F28.571428571428573
sg3075
I0
sg3076
I1
sg3077
g11
sg3078
I21
sg3079
I1
sg3080
I98
sg3081
I28
sg3082
g3083
sg3084
I98
sg34
S'Chain E, Mutant M58c Of Nostoc Sp Cytochrome C6'
p3111
sg36
F74.03846153846153
sg3086
I37
sg3087
F2.80695
sg39
g135
sg3088
I0
sg42
S'4h0j'
p3112
sg3090
F26.5646
sg3091
F57.0
sg46
I104
sg47
F74.03846153846153
sg3092
g3093
sg3094
g3095
sg3096
I77
stp3113
a(F28.571428571428573
F74.03846153846153
(dp3114
g23
F28.571428571428573
sg3075
I0
sg3076
I1
sg3077
g11
sg3078
I21
sg3079
I1
sg3080
I98
sg3081
I28
sg3082
g3083
sg3084
I98
sg34
S'Chain F, Mutant M58c Of Nostoc Sp Cytochrome C6'
p3115
sg36
F74.03846153846153
sg3086
I37
sg3087
F2.80695
sg39
g9
sg3088
I0
sg42
S'4h0j'
p3116
sg3090
F26.5646
sg3091
F57.0
sg46
I104
sg47
F74.03846153846153
sg3092
g3093
sg3094
g3095
sg3096
I77
stp3117
a(F28.07017543859649
F44.23076923076923
(dp3118
g23
F28.07017543859649
sS'query-frame'
p3119
I0
sS'hit-from'
p3120
I46
sS'num'
p3121
g11
sS'gaps'
p3122
I11
sS'query-from'
p3123
I1
sS'query-to'
p3124
I57
sS'identity'
p3125
I16
sS'midline'
p3126
S'G + KG++I+++ C+ CH     G+ K GP L+  +         +TY     +KG+'
p3127
sS'align-len'
p3128
I57
sg34
S'ChainA, Crystal Structure Of Cytochrome Cl From Hyphomicrobium Denitrificans'
p3129
sg36
F44.23076923076923
sS'positive'
p3130
I29
sS'evalue'
p3131
F6.96922
sg39
g60
sS'hit-frame'
p3132
I0
sg42
S'2d0w'
p3133
sS'bit-score'
p3134
F25.7942
sS'score'
p3135
F55.0
sg46
I104
sg47
F44.23076923076923
sS'hseq'
p3136
S'GCLPKGEEIYLESCSGCHG--HIGEGKVGPGLNDSY---------WTYPKNTTDKGL'
p3137
sS'qseq'
p3138
S'GDVEKGKKIFVQKCAQCHTVEKGGKHKTGPNLHGLFGRKTGQAPGFTYTDANKNKGI'
p3139
sS'hit-to'
p3140
I91
stp3141
a(F28.07017543859649
F44.23076923076923
(dp3142
g23
F28.07017543859649
sg3119
I0
sg3120
I46
sg3121
g11
sg3122
I11
sg3123
I1
sg3124
I57
sg3125
I16
sg3126
g3127
sg3128
I57
sg34
S'Chain B, Crystal Structure Of Cytochrome Cl From Hyphomicrobium Denitrificans'
p3143
sg36
F44.23076923076923
sg3130
I29
sg3131
F6.96922
sg39
g40
sg3132
I0
sg42
S'2d0w'
p3144
sg3134
F25.7942
sg3135
F55.0
sg46
I104
sg47
F44.23076923076923
sg3136
g3137
sg3138
g3139
sg3140
I91
stp3145
asb.